ARM GAS  C:\Users\ASUS\AppData\Local\Temp\ccLm5lP4.s 			page 1


   1              		.syntax unified
   2              		.cpu cortex-m3
   3              		.fpu softvfp
   4              		.eabi_attribute 20, 1
   5              		.eabi_attribute 21, 1
   6              		.eabi_attribute 23, 3
   7              		.eabi_attribute 24, 1
   8              		.eabi_attribute 25, 1
   9              		.eabi_attribute 26, 1
  10              		.eabi_attribute 30, 1
  11              		.eabi_attribute 34, 1
  12              		.eabi_attribute 18, 4
  13              		.thumb
  14              		.file	"i2c.c"
  15              		.text
  16              	.Ltext0:
  17              		.cfi_sections	.debug_frame
  18              		.section	.text.leer_hora,"ax",%progbits
  19              		.align	2
  20              		.global	leer_hora
  21              		.thumb
  22              		.thumb_func
  23              		.type	leer_hora, %function
  24              	leer_hora:
  25              	.LFB63:
  26              		.file 1 ".\\i2c.c"
   1:.\i2c.c       **** /*
   2:.\i2c.c       **** ***************************************************************************************************
   3:.\i2c.c       **** *                                         FC_Impresion CODE
   4:.\i2c.c       **** *
   5:.\i2c.c       **** *                             (c) Copyright 2016; Distracom S.A
   6:.\i2c.c       **** *
   7:.\i2c.c       **** *               All rights reserved.  Protected by international copyright laws.
   8:.\i2c.c       **** *               Knowledge of the source code may NOT be used to develop a similar product.
   9:.\i2c.c       **** *               Please help us continue to provide the Embedded community with the finest
  10:.\i2c.c       **** *               software available.  Your honesty is greatly appreciated.
  11:.\i2c.c       **** ***************************************************************************************************
  12:.\i2c.c       **** */
  13:.\i2c.c       **** 
  14:.\i2c.c       **** /*
  15:.\i2c.c       **** ***************************************************************************************************
  16:.\i2c.c       **** *
  17:.\i2c.c       **** *                                            FC_Impresion CODE
  18:.\i2c.c       **** *
  19:.\i2c.c       **** *                                             CYPRESS PSoC5LP
  20:.\i2c.c       **** *                                                with the
  21:.\i2c.c       **** *                                            CY8C5888LTI-LP097
  22:.\i2c.c       **** *
  23:.\i2c.c       **** * Filename      : i2c.c
  24:.\i2c.c       **** * Version       : V1.00
  25:.\i2c.c       **** * Programmer(s) : Leonardo Orjuela   
  26:.\i2c.c       ****                   
  27:.\i2c.c       **** ***************************************************************************************************
  28:.\i2c.c       **** */
  29:.\i2c.c       **** 
  30:.\i2c.c       **** /*
  31:.\i2c.c       **** ***************************************************************************************************
ARM GAS  C:\Users\ASUS\AppData\Local\Temp\ccLm5lP4.s 			page 2


  32:.\i2c.c       **** *                                             INCLUDE FILES
  33:.\i2c.c       **** ***************************************************************************************************
  34:.\i2c.c       **** */
  35:.\i2c.c       **** #include <project.h>
  36:.\i2c.c       **** #include "VariablesG.h"
  37:.\i2c.c       **** 
  38:.\i2c.c       **** /*
  39:.\i2c.c       **** ***************************************************************************************************
  40:.\i2c.c       **** *                                         uint8 leer_hora( void )
  41:.\i2c.c       **** *
  42:.\i2c.c       **** * Description : 
  43:.\i2c.c       **** *               
  44:.\i2c.c       **** *
  45:.\i2c.c       **** * Argument(s) : none
  46:.\i2c.c       **** *
  47:.\i2c.c       **** * Return(s)   : none
  48:.\i2c.c       **** *
  49:.\i2c.c       **** * Caller(s)   : 
  50:.\i2c.c       **** *
  51:.\i2c.c       **** * Note(s)     : none.
  52:.\i2c.c       **** ***************************************************************************************************
  53:.\i2c.c       **** */
  54:.\i2c.c       **** uint8 leer_hora(){
  27              		.loc 1 54 0
  28              		.cfi_startproc
  29              		@ args = 0, pretend = 0, frame = 0
  30              		@ frame_needed = 0, uses_anonymous_args = 0
  31 0000 38B5     		push	{r3, r4, r5, lr}
  32              		.cfi_def_cfa_offset 16
  33              		.cfi_offset 3, -16
  34              		.cfi_offset 4, -12
  35              		.cfi_offset 5, -8
  36              		.cfi_offset 14, -4
  37              	.LVL0:
  55:.\i2c.c       **** 	uint8 status,i;
  56:.\i2c.c       **** 	for(i=1;i<=2;i++){
  38              		.loc 1 56 0
  39 0002 0124     		movs	r4, #1
  40 0004 1DE0     		b	.L2
  41              	.LVL1:
  42              	.L4:
  57:.\i2c.c       ****         I2C_1_MasterClearStatus();
  43              		.loc 1 57 0
  44 0006 FFF7FEFF 		bl	I2C_1_MasterClearStatus
  45              	.LVL2:
  58:.\i2c.c       ****         status = I2C_1_MasterSendStart(0x68, I2C_1_WRITE_XFER_MODE);
  46              		.loc 1 58 0
  47 000a 6820     		movs	r0, #104
  48 000c 0021     		movs	r1, #0
  49 000e FFF7FEFF 		bl	I2C_1_MasterSendStart
  50              	.LVL3:
  59:.\i2c.c       ****         if(I2C_1_MSTR_NO_ERROR == status)								 		/* Check if transfer completed without errors *
  51              		.loc 1 59 0
  52 0012 D0B9     		cbnz	r0, .L5
  60:.\i2c.c       ****     	{
  61:.\i2c.c       ****             status = I2C_1_MasterWriteByte(i);
  53              		.loc 1 61 0
ARM GAS  C:\Users\ASUS\AppData\Local\Temp\ccLm5lP4.s 			page 3


  54 0014 2046     		mov	r0, r4
  55              	.LVL4:
  56 0016 FFF7FEFF 		bl	I2C_1_MasterWriteByte
  57              	.LVL5:
  62:.\i2c.c       ****             if(status != I2C_1_MSTR_NO_ERROR)
  58              		.loc 1 62 0
  59 001a C0B9     		cbnz	r0, .L6
  63:.\i2c.c       ****             {
  64:.\i2c.c       ****                 return 0;
  65:.\i2c.c       ****             }
  66:.\i2c.c       **** 			else{
  67:.\i2c.c       **** 		        I2C_1_MasterSendStop(); 										/* Send Stop */
  60              		.loc 1 67 0
  61 001c FFF7FEFF 		bl	I2C_1_MasterSendStop
  62              	.LVL6:
  68:.\i2c.c       **** 		        CyDelay(10);
  63              		.loc 1 68 0
  64 0020 0A20     		movs	r0, #10
  65 0022 FFF7FEFF 		bl	CyDelay
  66              	.LVL7:
  69:.\i2c.c       **** 		        status = I2C_1_MasterSendStart(0x68, I2C_1_READ_XFER_MODE);
  67              		.loc 1 69 0
  68 0026 6820     		movs	r0, #104
  69 0028 0121     		movs	r1, #1
  70 002a FFF7FEFF 		bl	I2C_1_MasterSendStart
  71              	.LVL8:
  70:.\i2c.c       **** 		        if(I2C_1_MSTR_NO_ERROR == status){
  72              		.loc 1 70 0
  73 002e 80B9     		cbnz	r0, .L7
  71:.\i2c.c       **** 		            hora[i-1] = I2C_1_MasterReadByte(I2C_1_NAK_DATA);
  74              		.loc 1 71 0
  75 0030 651E     		subs	r5, r4, #1
  76 0032 FFF7FEFF 		bl	I2C_1_MasterReadByte
  77              	.LVL9:
  78 0036 084B     		ldr	r3, .L9
  79 0038 5855     		strb	r0, [r3, r5]
  72:.\i2c.c       **** 		        }
  73:.\i2c.c       **** 				else{
  74:.\i2c.c       **** 					return 0;
  75:.\i2c.c       **** 				}
  76:.\i2c.c       **** 		        I2C_1_MasterSendStop();	
  80              		.loc 1 76 0
  81 003a FFF7FEFF 		bl	I2C_1_MasterSendStop
  82              	.LVL10:
  56:.\i2c.c       ****         I2C_1_MasterClearStatus();
  83              		.loc 1 56 0
  84 003e 0134     		adds	r4, r4, #1
  85              	.LVL11:
  86 0040 E4B2     		uxtb	r4, r4
  87              	.LVL12:
  88              	.L2:
  56:.\i2c.c       ****         I2C_1_MasterClearStatus();
  89              		.loc 1 56 0 is_stmt 0 discriminator 1
  90 0042 022C     		cmp	r4, #2
  91 0044 DFD9     		bls	.L4
  77:.\i2c.c       **** 			}
  78:.\i2c.c       ****         }
ARM GAS  C:\Users\ASUS\AppData\Local\Temp\ccLm5lP4.s 			page 4


  79:.\i2c.c       **** 		else{
  80:.\i2c.c       **** 			return 0;
  81:.\i2c.c       **** 		}		
  82:.\i2c.c       **** 	}
  83:.\i2c.c       **** 	return 1;
  92              		.loc 1 83 0 is_stmt 1
  93 0046 0120     		movs	r0, #1
  94 0048 38BD     		pop	{r3, r4, r5, pc}
  95              	.LVL13:
  96              	.L5:
  80:.\i2c.c       **** 		}		
  97              		.loc 1 80 0
  98 004a 0020     		movs	r0, #0
  99              	.LVL14:
 100 004c 38BD     		pop	{r3, r4, r5, pc}
 101              	.LVL15:
 102              	.L6:
  64:.\i2c.c       ****             }
 103              		.loc 1 64 0
 104 004e 0020     		movs	r0, #0
 105              	.LVL16:
 106 0050 38BD     		pop	{r3, r4, r5, pc}
 107              	.LVL17:
 108              	.L7:
  74:.\i2c.c       **** 				}
 109              		.loc 1 74 0
 110 0052 0020     		movs	r0, #0
 111              	.LVL18:
  84:.\i2c.c       **** }
 112              		.loc 1 84 0
 113 0054 38BD     		pop	{r3, r4, r5, pc}
 114              	.LVL19:
 115              	.L10:
 116 0056 00BF     		.align	2
 117              	.L9:
 118 0058 00000000 		.word	hora
 119              		.cfi_endproc
 120              	.LFE63:
 121              		.size	leer_hora, .-leer_hora
 122              		.section	.text.leer_fecha,"ax",%progbits
 123              		.align	2
 124              		.global	leer_fecha
 125              		.thumb
 126              		.thumb_func
 127              		.type	leer_fecha, %function
 128              	leer_fecha:
 129              	.LFB64:
  85:.\i2c.c       **** 
  86:.\i2c.c       **** /*
  87:.\i2c.c       **** ***************************************************************************************************
  88:.\i2c.c       **** *                                         uint8 leer_fecha( void )
  89:.\i2c.c       **** *
  90:.\i2c.c       **** * Description : 
  91:.\i2c.c       **** *               
  92:.\i2c.c       **** *
  93:.\i2c.c       **** * Argument(s) : none
  94:.\i2c.c       **** *
ARM GAS  C:\Users\ASUS\AppData\Local\Temp\ccLm5lP4.s 			page 5


  95:.\i2c.c       **** * Return(s)   : none
  96:.\i2c.c       **** *
  97:.\i2c.c       **** * Caller(s)   : 
  98:.\i2c.c       **** *
  99:.\i2c.c       **** * Note(s)     : none.
 100:.\i2c.c       **** ***************************************************************************************************
 101:.\i2c.c       **** */
 102:.\i2c.c       **** uint8 leer_fecha(){
 130              		.loc 1 102 0
 131              		.cfi_startproc
 132              		@ args = 0, pretend = 0, frame = 0
 133              		@ frame_needed = 0, uses_anonymous_args = 0
 134 0000 38B5     		push	{r3, r4, r5, lr}
 135              		.cfi_def_cfa_offset 16
 136              		.cfi_offset 3, -16
 137              		.cfi_offset 4, -12
 138              		.cfi_offset 5, -8
 139              		.cfi_offset 14, -4
 140              	.LVL20:
 103:.\i2c.c       **** 	uint8 status,i;
 104:.\i2c.c       **** 	for(i=4;i<=6;i++){
 141              		.loc 1 104 0
 142 0002 0424     		movs	r4, #4
 143 0004 1DE0     		b	.L12
 144              	.LVL21:
 145              	.L14:
 105:.\i2c.c       ****         I2C_1_MasterClearStatus();
 146              		.loc 1 105 0
 147 0006 FFF7FEFF 		bl	I2C_1_MasterClearStatus
 148              	.LVL22:
 106:.\i2c.c       ****         status = I2C_1_MasterSendStart(0x68, I2C_1_WRITE_XFER_MODE);
 149              		.loc 1 106 0
 150 000a 6820     		movs	r0, #104
 151 000c 0021     		movs	r1, #0
 152 000e FFF7FEFF 		bl	I2C_1_MasterSendStart
 153              	.LVL23:
 107:.\i2c.c       ****         if(I2C_1_MSTR_NO_ERROR == status)								 		/* Check if transfer completed without errors *
 154              		.loc 1 107 0
 155 0012 D0B9     		cbnz	r0, .L15
 108:.\i2c.c       ****     	{
 109:.\i2c.c       ****             status = I2C_1_MasterWriteByte(i);
 156              		.loc 1 109 0
 157 0014 2046     		mov	r0, r4
 158              	.LVL24:
 159 0016 FFF7FEFF 		bl	I2C_1_MasterWriteByte
 160              	.LVL25:
 110:.\i2c.c       ****             if(status != I2C_1_MSTR_NO_ERROR)
 161              		.loc 1 110 0
 162 001a C0B9     		cbnz	r0, .L16
 111:.\i2c.c       ****             {
 112:.\i2c.c       ****                 return 0;
 113:.\i2c.c       ****             }
 114:.\i2c.c       **** 			else{
 115:.\i2c.c       **** 		        I2C_1_MasterSendStop(); 										/* Send Stop */
 163              		.loc 1 115 0
 164 001c FFF7FEFF 		bl	I2C_1_MasterSendStop
 165              	.LVL26:
ARM GAS  C:\Users\ASUS\AppData\Local\Temp\ccLm5lP4.s 			page 6


 116:.\i2c.c       **** 		        CyDelay(10);
 166              		.loc 1 116 0
 167 0020 0A20     		movs	r0, #10
 168 0022 FFF7FEFF 		bl	CyDelay
 169              	.LVL27:
 117:.\i2c.c       **** 		        status = I2C_1_MasterSendStart(0x68, I2C_1_READ_XFER_MODE);
 170              		.loc 1 117 0
 171 0026 6820     		movs	r0, #104
 172 0028 0121     		movs	r1, #1
 173 002a FFF7FEFF 		bl	I2C_1_MasterSendStart
 174              	.LVL28:
 118:.\i2c.c       **** 		        if(I2C_1_MSTR_NO_ERROR == status){
 175              		.loc 1 118 0
 176 002e 80B9     		cbnz	r0, .L17
 119:.\i2c.c       **** 		            fecha[i-4] = I2C_1_MasterReadByte(I2C_1_NAK_DATA);
 177              		.loc 1 119 0
 178 0030 251F     		subs	r5, r4, #4
 179 0032 FFF7FEFF 		bl	I2C_1_MasterReadByte
 180              	.LVL29:
 181 0036 084B     		ldr	r3, .L19
 182 0038 5855     		strb	r0, [r3, r5]
 120:.\i2c.c       **** 		        }
 121:.\i2c.c       **** 				else{
 122:.\i2c.c       **** 					return 0;
 123:.\i2c.c       **** 				}
 124:.\i2c.c       **** 		        I2C_1_MasterSendStop();	
 183              		.loc 1 124 0
 184 003a FFF7FEFF 		bl	I2C_1_MasterSendStop
 185              	.LVL30:
 104:.\i2c.c       ****         I2C_1_MasterClearStatus();
 186              		.loc 1 104 0
 187 003e 0134     		adds	r4, r4, #1
 188              	.LVL31:
 189 0040 E4B2     		uxtb	r4, r4
 190              	.LVL32:
 191              	.L12:
 104:.\i2c.c       ****         I2C_1_MasterClearStatus();
 192              		.loc 1 104 0 is_stmt 0 discriminator 1
 193 0042 062C     		cmp	r4, #6
 194 0044 DFD9     		bls	.L14
 125:.\i2c.c       **** 			}
 126:.\i2c.c       ****         }
 127:.\i2c.c       **** 		else{
 128:.\i2c.c       **** 			return 0;
 129:.\i2c.c       **** 		}		
 130:.\i2c.c       **** 	}
 131:.\i2c.c       **** 	return 1;
 195              		.loc 1 131 0 is_stmt 1
 196 0046 0120     		movs	r0, #1
 197 0048 38BD     		pop	{r3, r4, r5, pc}
 198              	.LVL33:
 199              	.L15:
 128:.\i2c.c       **** 		}		
 200              		.loc 1 128 0
 201 004a 0020     		movs	r0, #0
 202              	.LVL34:
 203 004c 38BD     		pop	{r3, r4, r5, pc}
ARM GAS  C:\Users\ASUS\AppData\Local\Temp\ccLm5lP4.s 			page 7


 204              	.LVL35:
 205              	.L16:
 112:.\i2c.c       ****             }
 206              		.loc 1 112 0
 207 004e 0020     		movs	r0, #0
 208              	.LVL36:
 209 0050 38BD     		pop	{r3, r4, r5, pc}
 210              	.LVL37:
 211              	.L17:
 122:.\i2c.c       **** 				}
 212              		.loc 1 122 0
 213 0052 0020     		movs	r0, #0
 214              	.LVL38:
 132:.\i2c.c       **** }
 215              		.loc 1 132 0
 216 0054 38BD     		pop	{r3, r4, r5, pc}
 217              	.LVL39:
 218              	.L20:
 219 0056 00BF     		.align	2
 220              	.L19:
 221 0058 00000000 		.word	fecha
 222              		.cfi_endproc
 223              	.LFE64:
 224              		.size	leer_fecha, .-leer_fecha
 225              		.section	.text.write_hora,"ax",%progbits
 226              		.align	2
 227              		.global	write_hora
 228              		.thumb
 229              		.thumb_func
 230              		.type	write_hora, %function
 231              	write_hora:
 232              	.LFB65:
 133:.\i2c.c       **** 
 134:.\i2c.c       **** /*
 135:.\i2c.c       **** ***************************************************************************************************
 136:.\i2c.c       **** *                                         uint8 write_hora( void )
 137:.\i2c.c       **** *
 138:.\i2c.c       **** * Description : 
 139:.\i2c.c       **** *               
 140:.\i2c.c       **** *
 141:.\i2c.c       **** * Argument(s) : none
 142:.\i2c.c       **** *
 143:.\i2c.c       **** * Return(s)   : none
 144:.\i2c.c       **** *
 145:.\i2c.c       **** * Caller(s)   : 
 146:.\i2c.c       **** *
 147:.\i2c.c       **** * Note(s)     : none.
 148:.\i2c.c       **** ***************************************************************************************************
 149:.\i2c.c       **** */
 150:.\i2c.c       **** 
 151:.\i2c.c       **** uint8 write_hora( void ){
 233              		.loc 1 151 0
 234              		.cfi_startproc
 235              		@ args = 0, pretend = 0, frame = 8
 236              		@ frame_needed = 0, uses_anonymous_args = 0
 237 0000 10B5     		push	{r4, lr}
 238              		.cfi_def_cfa_offset 8
ARM GAS  C:\Users\ASUS\AppData\Local\Temp\ccLm5lP4.s 			page 8


 239              		.cfi_offset 4, -8
 240              		.cfi_offset 14, -4
 241 0002 82B0     		sub	sp, sp, #8
 242              		.cfi_def_cfa_offset 16
 152:.\i2c.c       **** 	uint8 status, dato[3],i;
 153:.\i2c.c       **** 	dato[0]=1;
 243              		.loc 1 153 0
 244 0004 0123     		movs	r3, #1
 245 0006 8DF80430 		strb	r3, [sp, #4]
 154:.\i2c.c       **** 	dato[1]=hora[0];
 246              		.loc 1 154 0
 247 000a 124B     		ldr	r3, .L28
 248 000c 1A78     		ldrb	r2, [r3]	@ zero_extendqisi2
 249 000e 8DF80520 		strb	r2, [sp, #5]
 155:.\i2c.c       **** 	dato[2]=hora[1];
 250              		.loc 1 155 0
 251 0012 5B78     		ldrb	r3, [r3, #1]	@ zero_extendqisi2
 252 0014 8DF80630 		strb	r3, [sp, #6]
 156:.\i2c.c       **** 	I2C_1_MasterClearStatus();
 253              		.loc 1 156 0
 254 0018 FFF7FEFF 		bl	I2C_1_MasterClearStatus
 255              	.LVL40:
 157:.\i2c.c       ****     status = I2C_1_MasterSendStart(0x68, I2C_1_WRITE_XFER_MODE);
 256              		.loc 1 157 0
 257 001c 6820     		movs	r0, #104
 258 001e 0021     		movs	r1, #0
 259 0020 FFF7FEFF 		bl	I2C_1_MasterSendStart
 260              	.LVL41:
 158:.\i2c.c       ****     if(I2C_1_MSTR_NO_ERROR == status) 
 261              		.loc 1 158 0
 262 0024 58B1     		cbz	r0, .L25
 159:.\i2c.c       ****     {
 160:.\i2c.c       ****         for(i=0; i<3; i++)
 161:.\i2c.c       ****         {
 162:.\i2c.c       ****             status = I2C_1_MasterWriteByte(dato[i]);
 163:.\i2c.c       ****             if(status != I2C_1_MSTR_NO_ERROR)
 164:.\i2c.c       ****             {
 165:.\i2c.c       ****                 return 0;
 166:.\i2c.c       ****             }
 167:.\i2c.c       ****         }
 168:.\i2c.c       ****     }
 169:.\i2c.c       ****     else{
 170:.\i2c.c       **** 		return 0;
 263              		.loc 1 170 0
 264 0026 0020     		movs	r0, #0
 265              	.LVL42:
 266 0028 11E0     		b	.L23
 267              	.LVL43:
 268              	.L24:
 162:.\i2c.c       ****             if(status != I2C_1_MSTR_NO_ERROR)
 269              		.loc 1 162 0
 270 002a 02AB     		add	r3, sp, #8
 271 002c 2344     		add	r3, r3, r4
 272 002e 13F8040C 		ldrb	r0, [r3, #-4]	@ zero_extendqisi2
 273              	.LVL44:
 274 0032 FFF7FEFF 		bl	I2C_1_MasterWriteByte
 275              	.LVL45:
ARM GAS  C:\Users\ASUS\AppData\Local\Temp\ccLm5lP4.s 			page 9


 163:.\i2c.c       ****             {
 276              		.loc 1 163 0
 277 0036 48B9     		cbnz	r0, .L26
 160:.\i2c.c       ****         {
 278              		.loc 1 160 0 discriminator 2
 279 0038 0134     		adds	r4, r4, #1
 280              	.LVL46:
 281 003a E4B2     		uxtb	r4, r4
 282              	.LVL47:
 283 003c 00E0     		b	.L22
 284              	.LVL48:
 285              	.L25:
 286 003e 0024     		movs	r4, #0
 287              	.L22:
 288              	.LVL49:
 160:.\i2c.c       ****         {
 289              		.loc 1 160 0 is_stmt 0 discriminator 1
 290 0040 022C     		cmp	r4, #2
 291 0042 F2D9     		bls	.L24
 171:.\i2c.c       ****     }
 172:.\i2c.c       ****     I2C_1_MasterSendStop();	
 292              		.loc 1 172 0 is_stmt 1
 293 0044 FFF7FEFF 		bl	I2C_1_MasterSendStop
 294              	.LVL50:
 173:.\i2c.c       **** 	return 1;
 295              		.loc 1 173 0
 296 0048 0120     		movs	r0, #1
 297 004a 00E0     		b	.L23
 298              	.LVL51:
 299              	.L26:
 165:.\i2c.c       ****             }
 300              		.loc 1 165 0
 301 004c 0020     		movs	r0, #0
 302              	.LVL52:
 303              	.L23:
 174:.\i2c.c       **** }
 304              		.loc 1 174 0
 305 004e 02B0     		add	sp, sp, #8
 306              		.cfi_def_cfa_offset 8
 307              		@ sp needed
 308 0050 10BD     		pop	{r4, pc}
 309              	.L29:
 310 0052 00BF     		.align	2
 311              	.L28:
 312 0054 00000000 		.word	hora
 313              		.cfi_endproc
 314              	.LFE65:
 315              		.size	write_hora, .-write_hora
 316              		.section	.text.write_fecha,"ax",%progbits
 317              		.align	2
 318              		.global	write_fecha
 319              		.thumb
 320              		.thumb_func
 321              		.type	write_fecha, %function
 322              	write_fecha:
 323              	.LFB66:
 175:.\i2c.c       **** 
ARM GAS  C:\Users\ASUS\AppData\Local\Temp\ccLm5lP4.s 			page 10


 176:.\i2c.c       **** /*
 177:.\i2c.c       **** ***************************************************************************************************
 178:.\i2c.c       **** *                                         uint8 write_fecha( void )
 179:.\i2c.c       **** *
 180:.\i2c.c       **** * Description : 
 181:.\i2c.c       **** *               
 182:.\i2c.c       **** *
 183:.\i2c.c       **** * Argument(s) : none
 184:.\i2c.c       **** *
 185:.\i2c.c       **** * Return(s)   : none
 186:.\i2c.c       **** *
 187:.\i2c.c       **** * Caller(s)   : 
 188:.\i2c.c       **** *
 189:.\i2c.c       **** * Note(s)     : none.
 190:.\i2c.c       **** ***************************************************************************************************
 191:.\i2c.c       **** */
 192:.\i2c.c       **** 
 193:.\i2c.c       **** uint8 write_fecha( void ){
 324              		.loc 1 193 0
 325              		.cfi_startproc
 326              		@ args = 0, pretend = 0, frame = 8
 327              		@ frame_needed = 0, uses_anonymous_args = 0
 328 0000 10B5     		push	{r4, lr}
 329              		.cfi_def_cfa_offset 8
 330              		.cfi_offset 4, -8
 331              		.cfi_offset 14, -4
 332 0002 82B0     		sub	sp, sp, #8
 333              		.cfi_def_cfa_offset 16
 194:.\i2c.c       **** 	uint8 status, dato[4],i;
 195:.\i2c.c       **** 	dato[0]=4;
 334              		.loc 1 195 0
 335 0004 0423     		movs	r3, #4
 336 0006 8DF80430 		strb	r3, [sp, #4]
 196:.\i2c.c       **** 	dato[1]=fecha[0];
 337              		.loc 1 196 0
 338 000a 134B     		ldr	r3, .L37
 339 000c 1A78     		ldrb	r2, [r3]	@ zero_extendqisi2
 340 000e 8DF80520 		strb	r2, [sp, #5]
 197:.\i2c.c       **** 	dato[2]=fecha[1];
 341              		.loc 1 197 0
 342 0012 5A78     		ldrb	r2, [r3, #1]	@ zero_extendqisi2
 343 0014 8DF80620 		strb	r2, [sp, #6]
 198:.\i2c.c       **** 	dato[3]=fecha[2];
 344              		.loc 1 198 0
 345 0018 9B78     		ldrb	r3, [r3, #2]	@ zero_extendqisi2
 346 001a 8DF80730 		strb	r3, [sp, #7]
 199:.\i2c.c       **** 	I2C_1_MasterClearStatus();
 347              		.loc 1 199 0
 348 001e FFF7FEFF 		bl	I2C_1_MasterClearStatus
 349              	.LVL53:
 200:.\i2c.c       ****     status = I2C_1_MasterSendStart(0x68, I2C_1_WRITE_XFER_MODE);
 350              		.loc 1 200 0
 351 0022 6820     		movs	r0, #104
 352 0024 0021     		movs	r1, #0
 353 0026 FFF7FEFF 		bl	I2C_1_MasterSendStart
 354              	.LVL54:
 201:.\i2c.c       ****     if(I2C_1_MSTR_NO_ERROR == status) 
ARM GAS  C:\Users\ASUS\AppData\Local\Temp\ccLm5lP4.s 			page 11


 355              		.loc 1 201 0
 356 002a 58B1     		cbz	r0, .L34
 202:.\i2c.c       ****     {
 203:.\i2c.c       ****         for(i=0; i<4; i++)
 204:.\i2c.c       ****         {
 205:.\i2c.c       ****             status = I2C_1_MasterWriteByte(dato[i]);
 206:.\i2c.c       ****             if(status != I2C_1_MSTR_NO_ERROR)
 207:.\i2c.c       ****             {
 208:.\i2c.c       ****                 return 0;
 209:.\i2c.c       ****             }
 210:.\i2c.c       ****         }
 211:.\i2c.c       ****     }
 212:.\i2c.c       ****     else{
 213:.\i2c.c       **** 		return 0;
 357              		.loc 1 213 0
 358 002c 0020     		movs	r0, #0
 359              	.LVL55:
 360 002e 11E0     		b	.L32
 361              	.LVL56:
 362              	.L33:
 205:.\i2c.c       ****             if(status != I2C_1_MSTR_NO_ERROR)
 363              		.loc 1 205 0
 364 0030 02AB     		add	r3, sp, #8
 365 0032 2344     		add	r3, r3, r4
 366 0034 13F8040C 		ldrb	r0, [r3, #-4]	@ zero_extendqisi2
 367              	.LVL57:
 368 0038 FFF7FEFF 		bl	I2C_1_MasterWriteByte
 369              	.LVL58:
 206:.\i2c.c       ****             {
 370              		.loc 1 206 0
 371 003c 48B9     		cbnz	r0, .L35
 203:.\i2c.c       ****         {
 372              		.loc 1 203 0 discriminator 2
 373 003e 0134     		adds	r4, r4, #1
 374              	.LVL59:
 375 0040 E4B2     		uxtb	r4, r4
 376              	.LVL60:
 377 0042 00E0     		b	.L31
 378              	.LVL61:
 379              	.L34:
 380 0044 0024     		movs	r4, #0
 381              	.L31:
 382              	.LVL62:
 203:.\i2c.c       ****         {
 383              		.loc 1 203 0 is_stmt 0 discriminator 1
 384 0046 032C     		cmp	r4, #3
 385 0048 F2D9     		bls	.L33
 214:.\i2c.c       ****     }
 215:.\i2c.c       ****     I2C_1_MasterSendStop();	
 386              		.loc 1 215 0 is_stmt 1
 387 004a FFF7FEFF 		bl	I2C_1_MasterSendStop
 388              	.LVL63:
 216:.\i2c.c       **** 	return 1;
 389              		.loc 1 216 0
 390 004e 0120     		movs	r0, #1
 391 0050 00E0     		b	.L32
 392              	.LVL64:
ARM GAS  C:\Users\ASUS\AppData\Local\Temp\ccLm5lP4.s 			page 12


 393              	.L35:
 208:.\i2c.c       ****             }
 394              		.loc 1 208 0
 395 0052 0020     		movs	r0, #0
 396              	.LVL65:
 397              	.L32:
 217:.\i2c.c       **** }
 398              		.loc 1 217 0
 399 0054 02B0     		add	sp, sp, #8
 400              		.cfi_def_cfa_offset 8
 401              		@ sp needed
 402 0056 10BD     		pop	{r4, pc}
 403              	.L38:
 404              		.align	2
 405              	.L37:
 406 0058 00000000 		.word	fecha
 407              		.cfi_endproc
 408              	.LFE66:
 409              		.size	write_fecha, .-write_fecha
 410              		.comm	print2,2,4
 411              		.comm	print1,2,4
 412              		.comm	rventa2,99,4
 413              		.comm	rventa1,99,4
 414              		.comm	hora,2,4
 415              		.comm	fecha,3,4
 416              		.comm	km,2,4
 417              		.comm	id_logo,2,4
 418              		.comm	lema2,32,4
 419              		.comm	lema1,32,4
 420              		.comm	direccion,33,4
 421              		.comm	telefono,20,4
 422              		.comm	nit,15,4
 423              		.comm	nombre,33,4
 424              		.comm	lado2,92,4
 425              		.comm	lado1,92,4
 426              		.comm	version,1,1
 427              		.comm	nombre_pro3,17,4
 428              		.comm	nombre_pro2,17,4
 429              		.comm	nombre_pro1,17,4
 430              		.comm	ppux10,1,1
 431              		.text
 432              	.Letext0:
 433              		.file 2 "c:\\program files (x86)\\cypress\\psoc creator\\3.3\\psoc creator\\import\\gnu\\arm\\4.9.
 434              		.file 3 "c:\\program files (x86)\\cypress\\psoc creator\\3.3\\psoc creator\\import\\gnu\\arm\\4.9.
 435              		.file 4 "Generated_Source\\PSoC5/cytypes.h"
 436              		.file 5 ".\\VariablesG.h"
 437              		.file 6 "Generated_Source\\PSoC5/core_cm3.h"
 438              		.file 7 "Generated_Source\\PSoC5/I2C_1.h"
 439              		.file 8 "Generated_Source\\PSoC5/CyLib.h"