ARM GAS  C:\Users\ASUS\AppData\Local\Temp\ccCANZGp.s 			page 1


   1              		.syntax unified
   2              		.cpu cortex-m3
   3              		.fpu softvfp
   4              		.eabi_attribute 20, 1
   5              		.eabi_attribute 21, 1
   6              		.eabi_attribute 23, 3
   7              		.eabi_attribute 24, 1
   8              		.eabi_attribute 25, 1
   9              		.eabi_attribute 26, 1
  10              		.eabi_attribute 30, 1
  11              		.eabi_attribute 34, 1
  12              		.eabi_attribute 18, 4
  13              		.thumb
  14              		.file	"main.c"
  15              		.text
  16              	.Ltext0:
  17              		.cfi_sections	.debug_frame
  18              		.global _printf_float
  19              		.thumb
  20              		.section	.text.init,"ax",%progbits
  21              		.align	2
  22              		.global	init
  23              		.thumb
  24              		.thumb_func
  25              		.type	init, %function
  26              	init:
  27              	.LFB63:
  28              		.file 1 ".\\main.c"
   1:.\main.c      **** /*
   2:.\main.c      **** ***************************************************************************************************
   3:.\main.c      **** *                                         FC_Impresion CODE
   4:.\main.c      **** *
   5:.\main.c      **** *                             (c) Copyright 2016; Distracom S.A
   6:.\main.c      **** *
   7:.\main.c      **** *               All rights reserved.  Protected by international copyright laws.
   8:.\main.c      **** *               Knowledge of the source code may NOT be used to develop a similar product.
   9:.\main.c      **** *               Please help us continue to provide the Embedded community with the finest
  10:.\main.c      **** *               software available.  Your honesty is greatly appreciated.
  11:.\main.c      **** ***************************************************************************************************
  12:.\main.c      **** */
  13:.\main.c      **** 
  14:.\main.c      **** /*
  15:.\main.c      **** ***************************************************************************************************
  16:.\main.c      **** *
  17:.\main.c      **** *                                            FC_Impresion CODE
  18:.\main.c      **** *
  19:.\main.c      **** *                                             CYPRESS PSoC5LP
  20:.\main.c      **** *                                                with the
  21:.\main.c      **** *                                            CY8C5888LTI-LP097
  22:.\main.c      **** *
  23:.\main.c      **** * Filename      : main.c
  24:.\main.c      **** * Version       : V1.00
  25:.\main.c      **** * Programmer(s) : Leonardo Orjuela   
  26:.\main.c      ****                   
  27:.\main.c      **** ***************************************************************************************************
  28:.\main.c      **** */
  29:.\main.c      **** 
ARM GAS  C:\Users\ASUS\AppData\Local\Temp\ccCANZGp.s 			page 2


  30:.\main.c      **** /*
  31:.\main.c      **** ***************************************************************************************************
  32:.\main.c      **** *                                           INCLUDE FILES AND DEFINE
  33:.\main.c      **** ***************************************************************************************************
  34:.\main.c      **** */
  35:.\main.c      **** #include <project.h>
  36:.\main.c      **** #include "stdio.h"
  37:.\main.c      **** #include "Protocolo.h"
  38:.\main.c      **** #include "VariablesG.h"
  39:.\main.c      **** #include "Print.h"
  40:.\main.c      **** #include "i2c.h"
  41:.\main.c      **** 
  42:.\main.c      **** #if defined (__GNUC__)
  43:.\main.c      ****     /* Add an explicit reference to the floating point printf library */
  44:.\main.c      ****     /* to allow the usage of floating point conversion specifiers. */
  45:.\main.c      ****     /* This is not linked in by default with the newlib-nano library. */
  46:.\main.c      ****     asm (".global _printf_float");
  47:.\main.c      **** #endif
  48:.\main.c      **** 
  49:.\main.c      **** #define versionFC 10
  50:.\main.c      **** #define BUFFER_LEN  64u
  51:.\main.c      **** 
  52:.\main.c      **** char8 *parity[] = { "None", "Odd", "Even", "Mark", "Space" };
  53:.\main.c      **** char8 *stop[] = { "1", "1.5", "2" };
  54:.\main.c      **** 
  55:.\main.c      **** /*
  56:.\main.c      **** ***************************************************************************************************
  57:.\main.c      **** *                                           init( void )
  58:.\main.c      **** *
  59:.\main.c      **** * Description : Verifica el serial, inicia los perisfericos, la version y los datos de la estación
  60:.\main.c      **** *               
  61:.\main.c      **** *
  62:.\main.c      **** * Argument(s) : none
  63:.\main.c      **** *
  64:.\main.c      **** * Return(s)   : none
  65:.\main.c      **** *
  66:.\main.c      **** * Caller(s)   : main()
  67:.\main.c      **** *
  68:.\main.c      **** * Note(s)     : none.
  69:.\main.c      **** ***************************************************************************************************
  70:.\main.c      **** */
  71:.\main.c      **** void init (void){
  29              		.loc 1 71 0
  30              		.cfi_startproc
  31              		@ args = 0, pretend = 0, frame = 0
  32              		@ frame_needed = 0, uses_anonymous_args = 0
  33 0000 F8B5     		push	{r3, r4, r5, r6, r7, lr}
  34              		.cfi_def_cfa_offset 24
  35              		.cfi_offset 3, -24
  36              		.cfi_offset 4, -20
  37              		.cfi_offset 5, -16
  38              		.cfi_offset 6, -12
  39              		.cfi_offset 7, -8
  40              		.cfi_offset 14, -4
  72:.\main.c      ****     uint8 x;
  73:.\main.c      ****     CyGlobalIntEnable; /* Enable global interrupts. */
  41              		.loc 1 73 0
ARM GAS  C:\Users\ASUS\AppData\Local\Temp\ccCANZGp.s 			page 3


  42              	@ 73 ".\main.c" 1
  43 0002 62B6     		CPSIE   i
  44              	@ 0 "" 2
  74:.\main.c      ****     Surtidor_EnableRxInt();
  45              		.loc 1 74 0
  46              		.thumb
  47 0004 6A4B     		ldr	r3, .L17
  48 0006 0426     		movs	r6, #4
  49 0008 1E60     		str	r6, [r3]
  75:.\main.c      ****     RS232_EnableRxInt();
  50              		.loc 1 75 0
  51 000a 0225     		movs	r5, #2
  52 000c 1D60     		str	r5, [r3]
  76:.\main.c      ****     I2C_1_Start();
  53              		.loc 1 76 0
  54 000e FFF7FEFF 		bl	I2C_1_Start
  55              	.LVL0:
  77:.\main.c      ****     Surtidor_Start();
  56              		.loc 1 77 0
  57 0012 FFF7FEFF 		bl	Surtidor_Start
  58              	.LVL1:
  78:.\main.c      ****     RS232_Start();
  59              		.loc 1 78 0
  60 0016 FFF7FEFF 		bl	RS232_Start
  61              	.LVL2:
  79:.\main.c      ****     USBUART_Start(0u, USBUART_3V_OPERATION);
  62              		.loc 1 79 0
  63 001a 0020     		movs	r0, #0
  64 001c 0146     		mov	r1, r0
  65 001e FFF7FEFF 		bl	USBUART_Start
  66              	.LVL3:
  80:.\main.c      ****     EEPROM_Start();
  67              		.loc 1 80 0
  68 0022 FFF7FEFF 		bl	EEPROM_Start
  69              	.LVL4:
  81:.\main.c      ****     CyDelay(100);
  70              		.loc 1 81 0
  71 0026 6420     		movs	r0, #100
  72 0028 FFF7FEFF 		bl	CyDelay
  73              	.LVL5:
  82:.\main.c      ****     /************Lectura de Eeprom***************/
  83:.\main.c      ****     lado1.dir = EEPROM_ReadByte(0);							//Lado A
  74              		.loc 1 83 0
  75 002c 0020     		movs	r0, #0
  76 002e FFF7FEFF 		bl	EEPROM_ReadByte
  77              	.LVL6:
  78 0032 604F     		ldr	r7, .L17+4
  79 0034 3870     		strb	r0, [r7]
  84:.\main.c      **** 	lado2.dir = EEPROM_ReadByte(1);							//Lado B
  80              		.loc 1 84 0
  81 0036 0120     		movs	r0, #1
  82 0038 FFF7FEFF 		bl	EEPROM_ReadByte
  83              	.LVL7:
  84 003c 5E4B     		ldr	r3, .L17+8
  85 003e 1870     		strb	r0, [r3]
  85:.\main.c      ****     lado1.dir = 1;							//Lado A
  86              		.loc 1 85 0
ARM GAS  C:\Users\ASUS\AppData\Local\Temp\ccCANZGp.s 			page 4


  87 0040 0124     		movs	r4, #1
  88 0042 3C70     		strb	r4, [r7]
  86:.\main.c      **** 	lado2.dir = 2;							//Lado B    
  89              		.loc 1 86 0
  90 0044 1D70     		strb	r5, [r3]
  87:.\main.c      ****     version   = EEPROM_ReadByte(2);							//Version
  91              		.loc 1 87 0
  92 0046 2846     		mov	r0, r5
  93 0048 FFF7FEFF 		bl	EEPROM_ReadByte
  94              	.LVL8:
  95 004c 5B4B     		ldr	r3, .L17+12
  96 004e 1870     		strb	r0, [r3]
  88:.\main.c      ****     ppux10    = EEPROM_ReadByte(3);							//Pppux10
  97              		.loc 1 88 0
  98 0050 0320     		movs	r0, #3
  99 0052 FFF7FEFF 		bl	EEPROM_ReadByte
 100              	.LVL9:
 101 0056 5A4B     		ldr	r3, .L17+16
 102 0058 1870     		strb	r0, [r3]
  89:.\main.c      ****     nombre[0] = EEPROM_ReadByte(4);							//Tamaño del nombre de la estacion
 103              		.loc 1 89 0
 104 005a 3046     		mov	r0, r6
 105 005c FFF7FEFF 		bl	EEPROM_ReadByte
 106              	.LVL10:
 107 0060 584B     		ldr	r3, .L17+20
 108 0062 1870     		strb	r0, [r3]
 109              	.LVL11:
  90:.\main.c      ****     for(x=1;x<=nombre[0];x++){                              //Nombre de la estacion
 110              		.loc 1 90 0
 111 0064 06E0     		b	.L2
 112              	.LVL12:
 113              	.L3:
  91:.\main.c      ****         nombre[x] = EEPROM_ReadByte(x+4);							
 114              		.loc 1 91 0 discriminator 3
 115 0066 201D     		adds	r0, r4, #4
 116 0068 FFF7FEFF 		bl	EEPROM_ReadByte
 117              	.LVL13:
 118 006c 554B     		ldr	r3, .L17+20
 119 006e 1855     		strb	r0, [r3, r4]
  90:.\main.c      ****     for(x=1;x<=nombre[0];x++){                              //Nombre de la estacion
 120              		.loc 1 90 0 discriminator 3
 121 0070 0134     		adds	r4, r4, #1
 122              	.LVL14:
 123 0072 E4B2     		uxtb	r4, r4
 124              	.LVL15:
 125              	.L2:
  90:.\main.c      ****     for(x=1;x<=nombre[0];x++){                              //Nombre de la estacion
 126              		.loc 1 90 0 is_stmt 0 discriminator 1
 127 0074 534B     		ldr	r3, .L17+20
 128 0076 1B78     		ldrb	r3, [r3]	@ zero_extendqisi2
 129 0078 DBB2     		uxtb	r3, r3
 130 007a A342     		cmp	r3, r4
 131 007c F3D2     		bcs	.L3
  92:.\main.c      ****     }
  93:.\main.c      ****     nit[0]    = EEPROM_ReadByte(34);					    //Tamaño Nit
 132              		.loc 1 93 0 is_stmt 1
 133 007e 2220     		movs	r0, #34
ARM GAS  C:\Users\ASUS\AppData\Local\Temp\ccCANZGp.s 			page 5


 134 0080 FFF7FEFF 		bl	EEPROM_ReadByte
 135              	.LVL16:
 136 0084 504B     		ldr	r3, .L17+24
 137 0086 1870     		strb	r0, [r3]
 138              	.LVL17:
  94:.\main.c      ****     for(x=1;x<=nit[0];x++){                                 //Nit
 139              		.loc 1 94 0
 140 0088 0124     		movs	r4, #1
 141 008a 07E0     		b	.L4
 142              	.LVL18:
 143              	.L5:
  95:.\main.c      ****         nit[x] = EEPROM_ReadByte(x+34);							
 144              		.loc 1 95 0 discriminator 3
 145 008c 04F12200 		add	r0, r4, #34
 146 0090 FFF7FEFF 		bl	EEPROM_ReadByte
 147              	.LVL19:
 148 0094 4C4B     		ldr	r3, .L17+24
 149 0096 1855     		strb	r0, [r3, r4]
  94:.\main.c      ****     for(x=1;x<=nit[0];x++){                                 //Nit
 150              		.loc 1 94 0 discriminator 3
 151 0098 0134     		adds	r4, r4, #1
 152              	.LVL20:
 153 009a E4B2     		uxtb	r4, r4
 154              	.LVL21:
 155              	.L4:
  94:.\main.c      ****     for(x=1;x<=nit[0];x++){                                 //Nit
 156              		.loc 1 94 0 is_stmt 0 discriminator 1
 157 009c 4A4B     		ldr	r3, .L17+24
 158 009e 1B78     		ldrb	r3, [r3]	@ zero_extendqisi2
 159 00a0 DBB2     		uxtb	r3, r3
 160 00a2 A342     		cmp	r3, r4
 161 00a4 F2D2     		bcs	.L5
  96:.\main.c      ****     }
  97:.\main.c      ****     direccion[0] = EEPROM_ReadByte(64);					    //Tamaño direccion
 162              		.loc 1 97 0 is_stmt 1
 163 00a6 4020     		movs	r0, #64
 164 00a8 FFF7FEFF 		bl	EEPROM_ReadByte
 165              	.LVL22:
 166 00ac 474B     		ldr	r3, .L17+28
 167 00ae 1870     		strb	r0, [r3]
 168              	.LVL23:
  98:.\main.c      ****     for(x=1;x<=direccion[0];x++){                           //direccion
 169              		.loc 1 98 0
 170 00b0 0124     		movs	r4, #1
 171 00b2 07E0     		b	.L6
 172              	.LVL24:
 173              	.L7:
  99:.\main.c      ****         direccion[x] = EEPROM_ReadByte(x+64);							
 174              		.loc 1 99 0 discriminator 3
 175 00b4 04F14000 		add	r0, r4, #64
 176 00b8 FFF7FEFF 		bl	EEPROM_ReadByte
 177              	.LVL25:
 178 00bc 434B     		ldr	r3, .L17+28
 179 00be 1855     		strb	r0, [r3, r4]
  98:.\main.c      ****     for(x=1;x<=direccion[0];x++){                           //direccion
 180              		.loc 1 98 0 discriminator 3
 181 00c0 0134     		adds	r4, r4, #1
ARM GAS  C:\Users\ASUS\AppData\Local\Temp\ccCANZGp.s 			page 6


 182              	.LVL26:
 183 00c2 E4B2     		uxtb	r4, r4
 184              	.LVL27:
 185              	.L6:
  98:.\main.c      ****     for(x=1;x<=direccion[0];x++){                           //direccion
 186              		.loc 1 98 0 is_stmt 0 discriminator 1
 187 00c4 414B     		ldr	r3, .L17+28
 188 00c6 1B78     		ldrb	r3, [r3]	@ zero_extendqisi2
 189 00c8 DBB2     		uxtb	r3, r3
 190 00ca A342     		cmp	r3, r4
 191 00cc F2D2     		bcs	.L7
 100:.\main.c      ****     }
 101:.\main.c      ****     telefono[0] = EEPROM_ReadByte(49);					    //Tamaño telefono
 192              		.loc 1 101 0 is_stmt 1
 193 00ce 3120     		movs	r0, #49
 194 00d0 FFF7FEFF 		bl	EEPROM_ReadByte
 195              	.LVL28:
 196 00d4 3E4B     		ldr	r3, .L17+32
 197 00d6 1870     		strb	r0, [r3]
 198              	.LVL29:
 102:.\main.c      ****     for(x=1;x<=telefono[0];x++){                            //telefono
 199              		.loc 1 102 0
 200 00d8 0124     		movs	r4, #1
 201 00da 07E0     		b	.L8
 202              	.LVL30:
 203              	.L9:
 103:.\main.c      ****         telefono[x] = EEPROM_ReadByte(x+49);							
 204              		.loc 1 103 0 discriminator 3
 205 00dc 04F13100 		add	r0, r4, #49
 206 00e0 FFF7FEFF 		bl	EEPROM_ReadByte
 207              	.LVL31:
 208 00e4 3A4B     		ldr	r3, .L17+32
 209 00e6 1855     		strb	r0, [r3, r4]
 102:.\main.c      ****     for(x=1;x<=telefono[0];x++){                            //telefono
 210              		.loc 1 102 0 discriminator 3
 211 00e8 0134     		adds	r4, r4, #1
 212              	.LVL32:
 213 00ea E4B2     		uxtb	r4, r4
 214              	.LVL33:
 215              	.L8:
 102:.\main.c      ****     for(x=1;x<=telefono[0];x++){                            //telefono
 216              		.loc 1 102 0 is_stmt 0 discriminator 1
 217 00ec 384B     		ldr	r3, .L17+32
 218 00ee 1B78     		ldrb	r3, [r3]	@ zero_extendqisi2
 219 00f0 DBB2     		uxtb	r3, r3
 220 00f2 A342     		cmp	r3, r4
 221 00f4 F2D2     		bcs	.L9
 104:.\main.c      ****     }
 105:.\main.c      ****     lado1.grado[0][0] = EEPROM_ReadByte(94);				//Codigo manguera 1 lado 1
 222              		.loc 1 105 0 is_stmt 1
 223 00f6 5E20     		movs	r0, #94
 224 00f8 FFF7FEFF 		bl	EEPROM_ReadByte
 225              	.LVL34:
 226 00fc 2D4C     		ldr	r4, .L17+4
 227              	.LVL35:
 228 00fe 84F85800 		strb	r0, [r4, #88]
 106:.\main.c      ****     lado1.grado[1][0] = EEPROM_ReadByte(95);				//Codigo manguera 2 lado 1
ARM GAS  C:\Users\ASUS\AppData\Local\Temp\ccCANZGp.s 			page 7


 229              		.loc 1 106 0
 230 0102 5F20     		movs	r0, #95
 231 0104 FFF7FEFF 		bl	EEPROM_ReadByte
 232              	.LVL36:
 233 0108 84F85900 		strb	r0, [r4, #89]
 107:.\main.c      ****     lado1.grado[2][0] = EEPROM_ReadByte(96);				//Codigo manguera 3 lado 1
 234              		.loc 1 107 0
 235 010c 6020     		movs	r0, #96
 236 010e FFF7FEFF 		bl	EEPROM_ReadByte
 237              	.LVL37:
 238 0112 84F85A00 		strb	r0, [r4, #90]
 108:.\main.c      ****     lado2.grado[0][0] = EEPROM_ReadByte(142);				//Codigo manguera 1 lado 2
 239              		.loc 1 108 0
 240 0116 8E20     		movs	r0, #142
 241 0118 FFF7FEFF 		bl	EEPROM_ReadByte
 242              	.LVL38:
 243 011c 264C     		ldr	r4, .L17+8
 244 011e 84F85800 		strb	r0, [r4, #88]
 109:.\main.c      ****     lado2.grado[1][0] = EEPROM_ReadByte(143);				//Codigo manguera 2 lado 2
 245              		.loc 1 109 0
 246 0122 8F20     		movs	r0, #143
 247 0124 FFF7FEFF 		bl	EEPROM_ReadByte
 248              	.LVL39:
 249 0128 84F85900 		strb	r0, [r4, #89]
 110:.\main.c      ****     lado2.grado[2][0] = EEPROM_ReadByte(144);				//Codigo manguera 3 lado 2  
 250              		.loc 1 110 0
 251 012c 9020     		movs	r0, #144
 252 012e FFF7FEFF 		bl	EEPROM_ReadByte
 253              	.LVL40:
 254 0132 84F85A00 		strb	r0, [r4, #90]
 111:.\main.c      ****     nombre_pro1[0]    = EEPROM_ReadByte(97);				//Tamaño nombre producto 1
 255              		.loc 1 111 0
 256 0136 6120     		movs	r0, #97
 257 0138 FFF7FEFF 		bl	EEPROM_ReadByte
 258              	.LVL41:
 259 013c 254B     		ldr	r3, .L17+36
 260 013e 1870     		strb	r0, [r3]
 261              	.LVL42:
 112:.\main.c      ****     for(x=1;x<=nombre_pro1[0];x++){                         //Producto 1
 262              		.loc 1 112 0
 263 0140 0124     		movs	r4, #1
 264 0142 07E0     		b	.L10
 265              	.LVL43:
 266              	.L11:
 113:.\main.c      ****         nombre_pro1[x] = EEPROM_ReadByte(x+97);							
 267              		.loc 1 113 0 discriminator 3
 268 0144 04F16100 		add	r0, r4, #97
 269 0148 FFF7FEFF 		bl	EEPROM_ReadByte
 270              	.LVL44:
 271 014c 214B     		ldr	r3, .L17+36
 272 014e 1855     		strb	r0, [r3, r4]
 112:.\main.c      ****     for(x=1;x<=nombre_pro1[0];x++){                         //Producto 1
 273              		.loc 1 112 0 discriminator 3
 274 0150 0134     		adds	r4, r4, #1
 275              	.LVL45:
 276 0152 E4B2     		uxtb	r4, r4
 277              	.LVL46:
ARM GAS  C:\Users\ASUS\AppData\Local\Temp\ccCANZGp.s 			page 8


 278              	.L10:
 112:.\main.c      ****     for(x=1;x<=nombre_pro1[0];x++){                         //Producto 1
 279              		.loc 1 112 0 is_stmt 0 discriminator 1
 280 0154 1F4B     		ldr	r3, .L17+36
 281 0156 1B78     		ldrb	r3, [r3]	@ zero_extendqisi2
 282 0158 DBB2     		uxtb	r3, r3
 283 015a A342     		cmp	r3, r4
 284 015c F2D2     		bcs	.L11
 114:.\main.c      ****     } 
 115:.\main.c      ****     nombre_pro2[0]    = EEPROM_ReadByte(112);				//Tamaño nombre producto 2
 285              		.loc 1 115 0 is_stmt 1
 286 015e 7020     		movs	r0, #112
 287 0160 FFF7FEFF 		bl	EEPROM_ReadByte
 288              	.LVL47:
 289 0164 1C4B     		ldr	r3, .L17+40
 290 0166 1870     		strb	r0, [r3]
 291              	.LVL48:
 116:.\main.c      ****     for(x=1;x<=nombre_pro2[0];x++){                         //Producto 2
 292              		.loc 1 116 0
 293 0168 0124     		movs	r4, #1
 294 016a 07E0     		b	.L12
 295              	.LVL49:
 296              	.L13:
 117:.\main.c      ****         nombre_pro2[x] = EEPROM_ReadByte(x+112);							
 297              		.loc 1 117 0 discriminator 3
 298 016c 04F17000 		add	r0, r4, #112
 299 0170 FFF7FEFF 		bl	EEPROM_ReadByte
 300              	.LVL50:
 301 0174 184B     		ldr	r3, .L17+40
 302 0176 1855     		strb	r0, [r3, r4]
 116:.\main.c      ****     for(x=1;x<=nombre_pro2[0];x++){                         //Producto 2
 303              		.loc 1 116 0 discriminator 3
 304 0178 0134     		adds	r4, r4, #1
 305              	.LVL51:
 306 017a E4B2     		uxtb	r4, r4
 307              	.LVL52:
 308              	.L12:
 116:.\main.c      ****     for(x=1;x<=nombre_pro2[0];x++){                         //Producto 2
 309              		.loc 1 116 0 is_stmt 0 discriminator 1
 310 017c 164B     		ldr	r3, .L17+40
 311 017e 1B78     		ldrb	r3, [r3]	@ zero_extendqisi2
 312 0180 DBB2     		uxtb	r3, r3
 313 0182 A342     		cmp	r3, r4
 314 0184 F2D2     		bcs	.L13
 118:.\main.c      ****     }
 119:.\main.c      ****     nombre_pro3[0]    = EEPROM_ReadByte(127);				//Tamaño nombre producto 3
 315              		.loc 1 119 0 is_stmt 1
 316 0186 7F20     		movs	r0, #127
 317 0188 FFF7FEFF 		bl	EEPROM_ReadByte
 318              	.LVL53:
 319 018c 134B     		ldr	r3, .L17+44
 320 018e 1870     		strb	r0, [r3]
 321              	.LVL54:
 120:.\main.c      ****     for(x=1;x<=nombre_pro3[0];x++){                         //Producto 3
 322              		.loc 1 120 0
 323 0190 0124     		movs	r4, #1
 324 0192 07E0     		b	.L14
ARM GAS  C:\Users\ASUS\AppData\Local\Temp\ccCANZGp.s 			page 9


 325              	.LVL55:
 326              	.L15:
 121:.\main.c      ****         nombre_pro3[x] = EEPROM_ReadByte(x+127);							
 327              		.loc 1 121 0 discriminator 3
 328 0194 04F17F00 		add	r0, r4, #127
 329 0198 FFF7FEFF 		bl	EEPROM_ReadByte
 330              	.LVL56:
 331 019c 0F4B     		ldr	r3, .L17+44
 332 019e 1855     		strb	r0, [r3, r4]
 120:.\main.c      ****     for(x=1;x<=nombre_pro3[0];x++){                         //Producto 3
 333              		.loc 1 120 0 discriminator 3
 334 01a0 0134     		adds	r4, r4, #1
 335              	.LVL57:
 336 01a2 E4B2     		uxtb	r4, r4
 337              	.LVL58:
 338              	.L14:
 120:.\main.c      ****     for(x=1;x<=nombre_pro3[0];x++){                         //Producto 3
 339              		.loc 1 120 0 is_stmt 0 discriminator 1
 340 01a4 0D4B     		ldr	r3, .L17+44
 341 01a6 1B78     		ldrb	r3, [r3]	@ zero_extendqisi2
 342 01a8 DBB2     		uxtb	r3, r3
 343 01aa A342     		cmp	r3, r4
 344 01ac F2D2     		bcs	.L15
 122:.\main.c      ****     }
 123:.\main.c      **** }
 345              		.loc 1 123 0 is_stmt 1
 346 01ae F8BD     		pop	{r3, r4, r5, r6, r7, pc}
 347              	.LVL59:
 348              	.L18:
 349              		.align	2
 350              	.L17:
 351 01b0 00E100E0 		.word	-536813312
 352 01b4 00000000 		.word	lado1
 353 01b8 00000000 		.word	lado2
 354 01bc 00000000 		.word	version
 355 01c0 00000000 		.word	ppux10
 356 01c4 00000000 		.word	nombre
 357 01c8 00000000 		.word	nit
 358 01cc 00000000 		.word	direccion
 359 01d0 00000000 		.word	telefono
 360 01d4 00000000 		.word	nombre_pro1
 361 01d8 00000000 		.word	nombre_pro2
 362 01dc 00000000 		.word	nombre_pro3
 363              		.cfi_endproc
 364              	.LFE63:
 365              		.size	init, .-init
 366              		.section	.text.init_surtidor,"ax",%progbits
 367              		.align	2
 368              		.global	init_surtidor
 369              		.thumb
 370              		.thumb_func
 371              		.type	init_surtidor, %function
 372              	init_surtidor:
 373              	.LFB64:
 124:.\main.c      **** /*
 125:.\main.c      **** ***************************************************************************************************
 126:.\main.c      **** *                                           init_surtidor( void )
ARM GAS  C:\Users\ASUS\AppData\Local\Temp\ccCANZGp.s 			page 10


 127:.\main.c      **** *
 128:.\main.c      **** * Description : Revisa las posiciones del equipo y su estado actual.
 129:.\main.c      **** *               
 130:.\main.c      **** *
 131:.\main.c      **** * Argument(s) : none
 132:.\main.c      **** *
 133:.\main.c      **** * Return(s)   : none
 134:.\main.c      **** *
 135:.\main.c      **** * Caller(s)   : main()
 136:.\main.c      **** *
 137:.\main.c      **** * Note(s)     : none.
 138:.\main.c      **** ***************************************************************************************************
 139:.\main.c      **** */
 140:.\main.c      **** void init_surtidor( void ){
 374              		.loc 1 140 0
 375              		.cfi_startproc
 376              		@ args = 0, pretend = 0, frame = 0
 377              		@ frame_needed = 0, uses_anonymous_args = 0
 378 0000 10B5     		push	{r4, lr}
 379              		.cfi_def_cfa_offset 8
 380              		.cfi_offset 4, -8
 381              		.cfi_offset 14, -4
 382              	.LVL60:
 141:.\main.c      ****     uint8 ok=0; 
 142:.\main.c      ****     uint8 estado,posicion;
 143:.\main.c      ****     Led_Write(1);
 383              		.loc 1 143 0
 384 0002 0120     		movs	r0, #1
 385 0004 FFF7FEFF 		bl	Led_Write
 386              	.LVL61:
 141:.\main.c      ****     uint8 ok=0; 
 387              		.loc 1 141 0
 388 0008 0024     		movs	r4, #0
 144:.\main.c      ****     while(ok!=2){
 389              		.loc 1 144 0
 390 000a 2FE0     		b	.L20
 391              	.LVL62:
 392              	.L25:
 145:.\main.c      ****         ok=0;
 146:.\main.c      ****         if(lado1.dir==lado2.dir){                       //No hay posiciones guardadas
 393              		.loc 1 146 0
 394 000c 1A4B     		ldr	r3, .L28
 395 000e 1B78     		ldrb	r3, [r3]	@ zero_extendqisi2
 396 0010 1A4A     		ldr	r2, .L28+4
 397 0012 1278     		ldrb	r2, [r2]	@ zero_extendqisi2
 398 0014 DBB2     		uxtb	r3, r3
 399 0016 9342     		cmp	r3, r2
 400 0018 12D1     		bne	.L21
 147:.\main.c      ****             posicion = ver_pos();
 401              		.loc 1 147 0
 402 001a FFF7FEFF 		bl	ver_pos
 403              	.LVL63:
 148:.\main.c      ****             if(posicion!=0){
 404              		.loc 1 148 0
 405 001e 78B1     		cbz	r0, .L21
 149:.\main.c      ****                 lado1.dir = (posicion & 0x0F);
 406              		.loc 1 149 0
ARM GAS  C:\Users\ASUS\AppData\Local\Temp\ccCANZGp.s 			page 11


 407 0020 00F00F01 		and	r1, r0, #15
 408 0024 144A     		ldr	r2, .L28
 409 0026 1170     		strb	r1, [r2]
 150:.\main.c      ****                 lado2.dir = ((posicion>>4) & 0x0F);
 410              		.loc 1 150 0
 411 0028 C0F30713 		ubfx	r3, r0, #4, #8
 412 002c 134C     		ldr	r4, .L28+4
 413 002e 2370     		strb	r3, [r4]
 151:.\main.c      ****                 EEPROM_WriteByte(lado1.dir, 0);
 414              		.loc 1 151 0
 415 0030 1078     		ldrb	r0, [r2]	@ zero_extendqisi2
 416              	.LVL64:
 417 0032 0021     		movs	r1, #0
 418 0034 FFF7FEFF 		bl	EEPROM_WriteByte
 419              	.LVL65:
 152:.\main.c      ****                 EEPROM_WriteByte(lado2.dir, 1);
 420              		.loc 1 152 0
 421 0038 2078     		ldrb	r0, [r4]	@ zero_extendqisi2
 422 003a 0121     		movs	r1, #1
 423 003c FFF7FEFF 		bl	EEPROM_WriteByte
 424              	.LVL66:
 425              	.L21:
 153:.\main.c      ****             }
 154:.\main.c      ****         }
 155:.\main.c      ****         estado = get_estado(lado1.dir);
 426              		.loc 1 155 0
 427 0040 0D4B     		ldr	r3, .L28
 428 0042 1878     		ldrb	r0, [r3]	@ zero_extendqisi2
 429 0044 FFF7FEFF 		bl	get_estado
 430              	.LVL67:
 156:.\main.c      ****         if(estado != 0){
 431              		.loc 1 156 0
 432 0048 08B9     		cbnz	r0, .L26
 145:.\main.c      ****         if(lado1.dir==lado2.dir){                       //No hay posiciones guardadas
 433              		.loc 1 145 0
 434 004a 0024     		movs	r4, #0
 435 004c 00E0     		b	.L22
 436              	.L26:
 157:.\main.c      ****             ok++;
 437              		.loc 1 157 0
 438 004e 0124     		movs	r4, #1
 439              	.L22:
 440              	.LVL68:
 158:.\main.c      ****         }
 159:.\main.c      ****         estado = get_estado(lado2.dir);
 441              		.loc 1 159 0
 442 0050 0A4B     		ldr	r3, .L28+4
 443 0052 1878     		ldrb	r0, [r3]	@ zero_extendqisi2
 444              	.LVL69:
 445 0054 FFF7FEFF 		bl	get_estado
 446              	.LVL70:
 160:.\main.c      ****         if(estado != 0){
 447              		.loc 1 160 0
 448 0058 08B1     		cbz	r0, .L23
 161:.\main.c      ****             ok++;
 449              		.loc 1 161 0
 450 005a 0134     		adds	r4, r4, #1
ARM GAS  C:\Users\ASUS\AppData\Local\Temp\ccCANZGp.s 			page 12


 451              	.LVL71:
 452 005c E4B2     		uxtb	r4, r4
 453              	.LVL72:
 454              	.L23:
 162:.\main.c      ****         }
 163:.\main.c      ****         if(ok!=2){
 455              		.loc 1 163 0
 456 005e 022C     		cmp	r4, #2
 457 0060 04D0     		beq	.L20
 164:.\main.c      ****            lado1.dir=0;
 458              		.loc 1 164 0
 459 0062 0023     		movs	r3, #0
 460 0064 044A     		ldr	r2, .L28
 461 0066 1370     		strb	r3, [r2]
 165:.\main.c      ****            lado2.dir=0; 
 462              		.loc 1 165 0
 463 0068 044A     		ldr	r2, .L28+4
 464 006a 1370     		strb	r3, [r2]
 465              	.LVL73:
 466              	.L20:
 144:.\main.c      ****         ok=0;
 467              		.loc 1 144 0
 468 006c 022C     		cmp	r4, #2
 469 006e CDD1     		bne	.L25
 166:.\main.c      ****         }
 167:.\main.c      ****     }
 168:.\main.c      ****     Led_Write(0);
 470              		.loc 1 168 0
 471 0070 0020     		movs	r0, #0
 472 0072 FFF7FEFF 		bl	Led_Write
 473              	.LVL74:
 474 0076 10BD     		pop	{r4, pc}
 475              	.LVL75:
 476              	.L29:
 477              		.align	2
 478              	.L28:
 479 0078 00000000 		.word	lado1
 480 007c 00000000 		.word	lado2
 481              		.cfi_endproc
 482              	.LFE64:
 483              		.size	init_surtidor, .-init_surtidor
 484              		.section	.text.polling_surtidor,"ax",%progbits
 485              		.align	2
 486              		.global	polling_surtidor
 487              		.thumb
 488              		.thumb_func
 489              		.type	polling_surtidor, %function
 490              	polling_surtidor:
 491              	.LFB65:
 169:.\main.c      **** }
 170:.\main.c      **** /*
 171:.\main.c      **** ***************************************************************************************************
 172:.\main.c      **** *                                        polling_surtidor(uint8 dir, uint8 estado)
 173:.\main.c      **** *
 174:.\main.c      **** * Description : Revisa el estado del surtidor.
 175:.\main.c      **** *               
 176:.\main.c      **** *
ARM GAS  C:\Users\ASUS\AppData\Local\Temp\ccCANZGp.s 			page 13


 177:.\main.c      **** * Argument(s) : dir = Posicion del equipo, estate = estado anterior del equipo
 178:.\main.c      **** *
 179:.\main.c      **** * Return(s)   : uint8 con el resultado de la operacion
 180:.\main.c      **** *
 181:.\main.c      **** * Caller(s)   : main()
 182:.\main.c      **** *
 183:.\main.c      **** * Note(s)     : none.
 184:.\main.c      **** ***************************************************************************************************
 185:.\main.c      **** */
 186:.\main.c      **** uint8 polling_surtidor(uint8 dir, uint8 estate){
 492              		.loc 1 186 0
 493              		.cfi_startproc
 494              		@ args = 0, pretend = 0, frame = 0
 495              		@ frame_needed = 0, uses_anonymous_args = 0
 496              	.LVL76:
 497 0000 38B5     		push	{r3, r4, r5, lr}
 498              		.cfi_def_cfa_offset 16
 499              		.cfi_offset 3, -16
 500              		.cfi_offset 4, -12
 501              		.cfi_offset 5, -8
 502              		.cfi_offset 14, -4
 503 0002 0546     		mov	r5, r0
 504 0004 0C46     		mov	r4, r1
 187:.\main.c      ****     uint8 estado, producto; 
 188:.\main.c      ****     estado = get_estado(dir);
 505              		.loc 1 188 0
 506 0006 FFF7FEFF 		bl	get_estado
 507              	.LVL77:
 189:.\main.c      ****     switch(estado){ 
 508              		.loc 1 189 0
 509 000a 0B28     		cmp	r0, #11
 510 000c 44D8     		bhi	.L42
 511 000e DFE800F0 		tbb	[pc, r0]
 512              	.L33:
 513 0012 08       		.byte	(.L32-.L33)/2
 514 0013 43       		.byte	(.L42-.L33)/2
 515 0014 43       		.byte	(.L42-.L33)/2
 516 0015 43       		.byte	(.L42-.L33)/2
 517 0016 43       		.byte	(.L42-.L33)/2
 518 0017 43       		.byte	(.L42-.L33)/2
 519 0018 0B       		.byte	(.L34-.L33)/2
 520 0019 10       		.byte	(.L35-.L33)/2
 521 001a 06       		.byte	(.L36-.L33)/2
 522 001b 06       		.byte	(.L36-.L33)/2
 523 001c 2F       		.byte	(.L37-.L33)/2
 524 001d 39       		.byte	(.L38-.L33)/2
 525              		.p2align 1
 526              	.L36:
 190:.\main.c      ****         case 0:                 //error
 191:.\main.c      ****             estate = (estate & 0x0C);
 192:.\main.c      ****             return estate;
 193:.\main.c      ****         break;
 194:.\main.c      ****     
 195:.\main.c      ****         case 6:                 //Espera
 196:.\main.c      ****             estate = (estate & 0x0D) | 1;
 197:.\main.c      ****             return estate;           
 198:.\main.c      ****         break;
ARM GAS  C:\Users\ASUS\AppData\Local\Temp\ccCANZGp.s 			page 14


 199:.\main.c      ****  
 200:.\main.c      ****         case 7:                 //Listo
 201:.\main.c      ****             producto = estado_ex (dir);
 202:.\main.c      ****             if(producto != 0){
 203:.\main.c      ****                 if(dir == lado1.dir){
 204:.\main.c      ****                     rventa1.producto = producto;     //ver producto lado1
 205:.\main.c      ****                 }
 206:.\main.c      ****                 else{
 207:.\main.c      ****                     rventa2.producto = producto;     //ver producto lado2
 208:.\main.c      ****                 }
 209:.\main.c      ****                 CyDelay(150);
 210:.\main.c      ****                 Surtidor_PutChar(0x10|dir);
 211:.\main.c      ****                 return 2;
 212:.\main.c      ****             }
 213:.\main.c      ****             CyDelay(150);
 214:.\main.c      ****             Surtidor_PutChar(0x14);            
 215:.\main.c      ****         break;
 216:.\main.c      ****             
 217:.\main.c      ****         case 8:                 //Autorizado
 218:.\main.c      ****             return 2;
 527              		.loc 1 218 0
 528 001e 0220     		movs	r0, #2
 529              	.LVL78:
 530 0020 38BD     		pop	{r3, r4, r5, pc}
 531              	.LVL79:
 532              	.L32:
 191:.\main.c      ****             return estate;
 533              		.loc 1 191 0
 534 0022 04F00C00 		and	r0, r4, #12
 535              	.LVL80:
 192:.\main.c      ****         break;
 536              		.loc 1 192 0
 537 0026 38BD     		pop	{r3, r4, r5, pc}
 538              	.LVL81:
 539              	.L34:
 196:.\main.c      ****             return estate;           
 540              		.loc 1 196 0
 541 0028 04F00C00 		and	r0, r4, #12
 542              	.LVL82:
 543 002c 40F00100 		orr	r0, r0, #1
 544              	.LVL83:
 197:.\main.c      ****         break;
 545              		.loc 1 197 0
 546 0030 38BD     		pop	{r3, r4, r5, pc}
 547              	.LVL84:
 548              	.L35:
 201:.\main.c      ****             if(producto != 0){
 549              		.loc 1 201 0
 550 0032 2846     		mov	r0, r5
 551              	.LVL85:
 552 0034 FFF7FEFF 		bl	estado_ex
 553              	.LVL86:
 202:.\main.c      ****                 if(dir == lado1.dir){
 554              		.loc 1 202 0
 555 0038 90B1     		cbz	r0, .L39
 203:.\main.c      ****                     rventa1.producto = producto;     //ver producto lado1
 556              		.loc 1 203 0
ARM GAS  C:\Users\ASUS\AppData\Local\Temp\ccCANZGp.s 			page 15


 557 003a 1A4B     		ldr	r3, .L46
 558 003c 1B78     		ldrb	r3, [r3]	@ zero_extendqisi2
 559 003e DBB2     		uxtb	r3, r3
 560 0040 AB42     		cmp	r3, r5
 561 0042 02D1     		bne	.L40
 204:.\main.c      ****                 }
 562              		.loc 1 204 0
 563 0044 184B     		ldr	r3, .L46+4
 564 0046 D876     		strb	r0, [r3, #27]
 565 0048 01E0     		b	.L41
 566              	.L40:
 207:.\main.c      ****                 }
 567              		.loc 1 207 0
 568 004a 184B     		ldr	r3, .L46+8
 569 004c D876     		strb	r0, [r3, #27]
 570              	.L41:
 209:.\main.c      ****                 Surtidor_PutChar(0x10|dir);
 571              		.loc 1 209 0
 572 004e 9620     		movs	r0, #150
 573              	.LVL87:
 574 0050 FFF7FEFF 		bl	CyDelay
 575              	.LVL88:
 210:.\main.c      ****                 return 2;
 576              		.loc 1 210 0
 577 0054 45F01000 		orr	r0, r5, #16
 578 0058 FFF7FEFF 		bl	Surtidor_PutChar
 579              	.LVL89:
 211:.\main.c      ****             }
 580              		.loc 1 211 0
 581 005c 0220     		movs	r0, #2
 582 005e 38BD     		pop	{r3, r4, r5, pc}
 583              	.LVL90:
 584              	.L39:
 213:.\main.c      ****             Surtidor_PutChar(0x14);            
 585              		.loc 1 213 0
 586 0060 9620     		movs	r0, #150
 587              	.LVL91:
 588 0062 FFF7FEFF 		bl	CyDelay
 589              	.LVL92:
 214:.\main.c      ****         break;
 590              		.loc 1 214 0
 591 0066 1420     		movs	r0, #20
 592 0068 FFF7FEFF 		bl	Surtidor_PutChar
 593              	.LVL93:
 219:.\main.c      ****         break;    
 220:.\main.c      ****         
 221:.\main.c      ****         case 9:                 //Surtiendo
 222:.\main.c      ****             return 2;
 223:.\main.c      ****         break;
 224:.\main.c      ****             
 225:.\main.c      ****         case 0x0A:              //Venta
 226:.\main.c      ****             CyDelay(100);
 227:.\main.c      ****             if(venta(dir) == 1){
 228:.\main.c      ****                 return 4;
 229:.\main.c      ****             }
 230:.\main.c      ****         break;    
 231:.\main.c      ****         
ARM GAS  C:\Users\ASUS\AppData\Local\Temp\ccCANZGp.s 			page 16


 232:.\main.c      ****         case 0x0B:              //Venta
 233:.\main.c      ****             CyDelay(100);
 234:.\main.c      ****             if(venta(dir) == 1){
 235:.\main.c      ****                 return 4;
 236:.\main.c      ****             }
 237:.\main.c      ****         break;         
 238:.\main.c      ****         
 239:.\main.c      ****     }
 240:.\main.c      ****     return 0;
 594              		.loc 1 240 0
 595 006c 0020     		movs	r0, #0
 215:.\main.c      ****             
 596              		.loc 1 215 0
 597 006e 38BD     		pop	{r3, r4, r5, pc}
 598              	.LVL94:
 599              	.L37:
 226:.\main.c      ****             if(venta(dir) == 1){
 600              		.loc 1 226 0
 601 0070 6420     		movs	r0, #100
 602              	.LVL95:
 603 0072 FFF7FEFF 		bl	CyDelay
 604              	.LVL96:
 227:.\main.c      ****                 return 4;
 605              		.loc 1 227 0
 606 0076 2846     		mov	r0, r5
 607 0078 FFF7FEFF 		bl	venta
 608              	.LVL97:
 609 007c 0128     		cmp	r0, #1
 610 007e 0DD1     		bne	.L43
 228:.\main.c      ****             }
 611              		.loc 1 228 0
 612 0080 0420     		movs	r0, #4
 613 0082 38BD     		pop	{r3, r4, r5, pc}
 614              	.LVL98:
 615              	.L38:
 233:.\main.c      ****             if(venta(dir) == 1){
 616              		.loc 1 233 0
 617 0084 6420     		movs	r0, #100
 618              	.LVL99:
 619 0086 FFF7FEFF 		bl	CyDelay
 620              	.LVL100:
 234:.\main.c      ****                 return 4;
 621              		.loc 1 234 0
 622 008a 2846     		mov	r0, r5
 623 008c FFF7FEFF 		bl	venta
 624              	.LVL101:
 625 0090 0128     		cmp	r0, #1
 626 0092 05D1     		bne	.L44
 235:.\main.c      ****             }
 627              		.loc 1 235 0
 628 0094 0420     		movs	r0, #4
 629 0096 38BD     		pop	{r3, r4, r5, pc}
 630              	.LVL102:
 631              	.L42:
 632              		.loc 1 240 0
 633 0098 0020     		movs	r0, #0
 634              	.LVL103:
ARM GAS  C:\Users\ASUS\AppData\Local\Temp\ccCANZGp.s 			page 17


 635 009a 38BD     		pop	{r3, r4, r5, pc}
 636              	.L43:
 637 009c 0020     		movs	r0, #0
 638 009e 38BD     		pop	{r3, r4, r5, pc}
 639              	.L44:
 640 00a0 0020     		movs	r0, #0
 241:.\main.c      ****     
 242:.\main.c      **** }
 641              		.loc 1 242 0
 642 00a2 38BD     		pop	{r3, r4, r5, pc}
 643              	.L47:
 644              		.align	2
 645              	.L46:
 646 00a4 00000000 		.word	lado1
 647 00a8 00000000 		.word	rventa1
 648 00ac 00000000 		.word	rventa2
 649              		.cfi_endproc
 650              	.LFE65:
 651              		.size	polling_surtidor, .-polling_surtidor
 652              		.section	.text.polling_boton,"ax",%progbits
 653              		.align	2
 654              		.global	polling_boton
 655              		.thumb
 656              		.thumb_func
 657              		.type	polling_boton, %function
 658              	polling_boton:
 659              	.LFB66:
 243:.\main.c      **** /*
 244:.\main.c      **** ***************************************************************************************************
 245:.\main.c      **** *                               uint8 polling_boton(uint8 id, uint8 state)
 246:.\main.c      **** *
 247:.\main.c      **** * Description : Revisa el estado del surtidor.
 248:.\main.c      **** *               
 249:.\main.c      **** *
 250:.\main.c      **** * Argument(s) : id = numero del boton, state = estado para saber que accion tomar, state
 251:.\main.c      **** *
 252:.\main.c      **** * Return(s)   : none
 253:.\main.c      **** *
 254:.\main.c      **** * Caller(s)   : main()
 255:.\main.c      **** *
 256:.\main.c      **** * Note(s)     : none.
 257:.\main.c      **** ***************************************************************************************************
 258:.\main.c      **** */
 259:.\main.c      **** uint8 polling_boton(uint8 id, uint8 state){
 660              		.loc 1 259 0
 661              		.cfi_startproc
 662              		@ args = 0, pretend = 0, frame = 0
 663              		@ frame_needed = 0, uses_anonymous_args = 0
 664              	.LVL104:
 665 0000 30B5     		push	{r4, r5, lr}
 666              		.cfi_def_cfa_offset 12
 667              		.cfi_offset 4, -12
 668              		.cfi_offset 5, -8
 669              		.cfi_offset 14, -4
 670 0002 83B0     		sub	sp, sp, #12
 671              		.cfi_def_cfa_offset 24
 672 0004 0546     		mov	r5, r0
ARM GAS  C:\Users\ASUS\AppData\Local\Temp\ccCANZGp.s 			page 18


 673 0006 0C46     		mov	r4, r1
 260:.\main.c      ****     uint8 y;
 261:.\main.c      ****     y = Botones_Read();
 674              		.loc 1 261 0
 675 0008 FFF7FEFF 		bl	Botones_Read
 676              	.LVL105:
 262:.\main.c      ****     if((y & id) == 0){                 //Si el boton esta presionado
 677              		.loc 1 262 0
 678 000c 2842     		tst	r0, r5
 679 000e 7ED1     		bne	.L49
 263:.\main.c      ****         Select0_RS232_Write(0);                    //Selecciono la impresora
 680              		.loc 1 263 0
 681 0010 0020     		movs	r0, #0
 682              	.LVL106:
 683 0012 FFF7FEFF 		bl	Select0_RS232_Write
 684              	.LVL107:
 264:.\main.c      ****         Select1_RS232_Write(0);
 685              		.loc 1 264 0
 686 0016 0020     		movs	r0, #0
 687 0018 FFF7FEFF 		bl	Select1_RS232_Write
 688              	.LVL108:
 265:.\main.c      ****         switch (state){
 689              		.loc 1 265 0
 690 001c 052C     		cmp	r4, #5
 691 001e 72D8     		bhi	.L59
 692 0020 DFE804F0 		tbb	[pc, r4]
 693              	.L52:
 694 0024 03       		.byte	(.L51-.L52)/2
 695 0025 10       		.byte	(.L53-.L52)/2
 696 0026 1D       		.byte	(.L54-.L52)/2
 697 0027 71       		.byte	(.L59-.L52)/2
 698 0028 2A       		.byte	(.L55-.L52)/2
 699 0029 4E       		.byte	(.L56-.L52)/2
 700              		.p2align 1
 701              	.L51:
 266:.\main.c      ****             case 0:                                     //error
 267:.\main.c      ****                 RS232_PutString("\n\nNo hay comunicacion con esta posicion.\n\n\n\n\n\n");
 702              		.loc 1 267 0
 703 002a 3A48     		ldr	r0, .L61
 704 002c FFF7FEFF 		bl	RS232_PutString
 705              	.LVL109:
 268:.\main.c      ****                 RS232_PutChar(0x1D);
 706              		.loc 1 268 0
 707 0030 1D20     		movs	r0, #29
 708 0032 FFF7FEFF 		bl	RS232_PutChar
 709              	.LVL110:
 269:.\main.c      ****                 RS232_PutChar(0x56);
 710              		.loc 1 269 0
 711 0036 5620     		movs	r0, #86
 712 0038 FFF7FEFF 		bl	RS232_PutChar
 713              	.LVL111:
 270:.\main.c      **** 	            RS232_PutChar(0x31);                
 714              		.loc 1 270 0
 715 003c 3120     		movs	r0, #49
 716 003e FFF7FEFF 		bl	RS232_PutChar
 717              	.LVL112:
 271:.\main.c      ****             break;
ARM GAS  C:\Users\ASUS\AppData\Local\Temp\ccCANZGp.s 			page 19


 718              		.loc 1 271 0
 719 0042 60E0     		b	.L59
 720              	.L53:
 272:.\main.c      ****                 
 273:.\main.c      ****             case 1:
 274:.\main.c      ****                 RS232_PutString("\n\nPosicion OK y no hay recibos para imprimir.\n\n\n\n\n\n");
 721              		.loc 1 274 0
 722 0044 3448     		ldr	r0, .L61+4
 723 0046 FFF7FEFF 		bl	RS232_PutString
 724              	.LVL113:
 275:.\main.c      ****                 RS232_PutChar(0x1D);
 725              		.loc 1 275 0
 726 004a 1D20     		movs	r0, #29
 727 004c FFF7FEFF 		bl	RS232_PutChar
 728              	.LVL114:
 276:.\main.c      ****                 RS232_PutChar(0x56);
 729              		.loc 1 276 0
 730 0050 5620     		movs	r0, #86
 731 0052 FFF7FEFF 		bl	RS232_PutChar
 732              	.LVL115:
 277:.\main.c      **** 	            RS232_PutChar(0x31);
 733              		.loc 1 277 0
 734 0056 3120     		movs	r0, #49
 735 0058 FFF7FEFF 		bl	RS232_PutChar
 736              	.LVL116:
 278:.\main.c      ****             break;                
 737              		.loc 1 278 0
 738 005c 53E0     		b	.L59
 739              	.L54:
 279:.\main.c      ****                 
 280:.\main.c      ****             case 2:
 281:.\main.c      ****                 RS232_PutString("\n\nPosicion ocupada.\n\n\n\n\n\n");
 740              		.loc 1 281 0
 741 005e 2F48     		ldr	r0, .L61+8
 742 0060 FFF7FEFF 		bl	RS232_PutString
 743              	.LVL117:
 282:.\main.c      ****                 RS232_PutChar(0x1D);
 744              		.loc 1 282 0
 745 0064 1D20     		movs	r0, #29
 746 0066 FFF7FEFF 		bl	RS232_PutChar
 747              	.LVL118:
 283:.\main.c      ****                 RS232_PutChar(0x56);
 748              		.loc 1 283 0
 749 006a 5620     		movs	r0, #86
 750 006c FFF7FEFF 		bl	RS232_PutChar
 751              	.LVL119:
 284:.\main.c      **** 	            RS232_PutChar(0x31);            
 752              		.loc 1 284 0
 753 0070 3120     		movs	r0, #49
 754 0072 FFF7FEFF 		bl	RS232_PutChar
 755              	.LVL120:
 285:.\main.c      ****             break;    
 756              		.loc 1 285 0
 757 0076 46E0     		b	.L59
 758              	.L55:
 286:.\main.c      **** 
 287:.\main.c      ****             case 4:
ARM GAS  C:\Users\ASUS\AppData\Local\Temp\ccCANZGp.s 			page 20


 288:.\main.c      ****                 if(id == 1){
 759              		.loc 1 288 0
 760 0078 012D     		cmp	r5, #1
 761 007a 10D1     		bne	.L57
 289:.\main.c      ****                     imprimir(lado1.dir, lado1.grado[rventa1.producto - 1][0], rventa1.ppu, rventa1.
 762              		.loc 1 289 0
 763 007c 2849     		ldr	r1, .L61+12
 764 007e 0878     		ldrb	r0, [r1]	@ zero_extendqisi2
 765 0080 284B     		ldr	r3, .L61+16
 766 0082 DA7E     		ldrb	r2, [r3, #27]	@ zero_extendqisi2
 767 0084 013A     		subs	r2, r2, #1
 768 0086 0A44     		add	r2, r2, r1
 769 0088 92F85810 		ldrb	r1, [r2, #88]	@ zero_extendqisi2
 770 008c 03F10902 		add	r2, r3, #9
 771 0090 0092     		str	r2, [sp]
 772 0092 DA1C     		adds	r2, r3, #3
 773 0094 1233     		adds	r3, r3, #18
 774 0096 FFF7FEFF 		bl	imprimir
 775              	.LVL121:
 290:.\main.c      ****                 }
 291:.\main.c      ****                 else{
 292:.\main.c      ****                     imprimir(lado2.dir, lado2.grado[rventa2.producto - 1][0], rventa2.ppu, rventa2.
 293:.\main.c      ****                 }
 294:.\main.c      ****                 state = 1;
 776              		.loc 1 294 0
 777 009a 0124     		movs	r4, #1
 778 009c 33E0     		b	.L59
 779              	.L57:
 292:.\main.c      ****                 }
 780              		.loc 1 292 0
 781 009e 2249     		ldr	r1, .L61+20
 782 00a0 0878     		ldrb	r0, [r1]	@ zero_extendqisi2
 783 00a2 224B     		ldr	r3, .L61+24
 784 00a4 DA7E     		ldrb	r2, [r3, #27]	@ zero_extendqisi2
 785 00a6 013A     		subs	r2, r2, #1
 786 00a8 0A44     		add	r2, r2, r1
 787 00aa 92F85810 		ldrb	r1, [r2, #88]	@ zero_extendqisi2
 788 00ae 03F10902 		add	r2, r3, #9
 789 00b2 0092     		str	r2, [sp]
 790 00b4 DA1C     		adds	r2, r3, #3
 791 00b6 1233     		adds	r3, r3, #18
 792 00b8 FFF7FEFF 		bl	imprimir
 793              	.LVL122:
 794              		.loc 1 294 0
 795 00bc 0124     		movs	r4, #1
 796 00be 22E0     		b	.L59
 797              	.L56:
 295:.\main.c      ****             break;
 296:.\main.c      ****             
 297:.\main.c      ****             case 5:
 298:.\main.c      ****                 if(id == 2){
 798              		.loc 1 298 0
 799 00c0 022D     		cmp	r5, #2
 800 00c2 10D1     		bne	.L58
 299:.\main.c      ****                     imprimir(lado1.dir, lado1.grado[rventa1.producto - 1][0], rventa1.ppu, rventa1.
 801              		.loc 1 299 0
 802 00c4 1649     		ldr	r1, .L61+12
ARM GAS  C:\Users\ASUS\AppData\Local\Temp\ccCANZGp.s 			page 21


 803 00c6 0878     		ldrb	r0, [r1]	@ zero_extendqisi2
 804 00c8 164B     		ldr	r3, .L61+16
 805 00ca DA7E     		ldrb	r2, [r3, #27]	@ zero_extendqisi2
 806 00cc 013A     		subs	r2, r2, #1
 807 00ce 0A44     		add	r2, r2, r1
 808 00d0 92F85810 		ldrb	r1, [r2, #88]	@ zero_extendqisi2
 809 00d4 03F10902 		add	r2, r3, #9
 810 00d8 0092     		str	r2, [sp]
 811 00da DA1C     		adds	r2, r3, #3
 812 00dc 1233     		adds	r3, r3, #18
 813 00de FFF7FEFF 		bl	imprimir
 814              	.LVL123:
 300:.\main.c      ****                 }
 301:.\main.c      ****                 else{
 302:.\main.c      ****                     imprimir(lado2.dir, lado2.grado[rventa2.producto - 1][0], rventa2.ppu, rventa2.
 303:.\main.c      ****                 }
 304:.\main.c      ****                 state = 1;
 815              		.loc 1 304 0
 816 00e2 0124     		movs	r4, #1
 817 00e4 0FE0     		b	.L59
 818              	.L58:
 302:.\main.c      ****                 }
 819              		.loc 1 302 0
 820 00e6 1049     		ldr	r1, .L61+20
 821 00e8 0878     		ldrb	r0, [r1]	@ zero_extendqisi2
 822 00ea 104B     		ldr	r3, .L61+24
 823 00ec DA7E     		ldrb	r2, [r3, #27]	@ zero_extendqisi2
 824 00ee 013A     		subs	r2, r2, #1
 825 00f0 0A44     		add	r2, r2, r1
 826 00f2 92F85810 		ldrb	r1, [r2, #88]	@ zero_extendqisi2
 827 00f6 03F10902 		add	r2, r3, #9
 828 00fa 0092     		str	r2, [sp]
 829 00fc DA1C     		adds	r2, r3, #3
 830 00fe 1233     		adds	r3, r3, #18
 831 0100 FFF7FEFF 		bl	imprimir
 832              	.LVL124:
 833              		.loc 1 304 0
 834 0104 0124     		movs	r4, #1
 835              	.LVL125:
 836              	.L59:
 305:.\main.c      ****             break;
 306:.\main.c      ****             
 307:.\main.c      ****         }
 308:.\main.c      ****         while(Botones_Read()!=3);        
 837              		.loc 1 308 0 discriminator 1
 838 0106 FFF7FEFF 		bl	Botones_Read
 839              	.LVL126:
 840 010a 0328     		cmp	r0, #3
 841 010c FBD1     		bne	.L59
 842              	.LVL127:
 843              	.L49:
 309:.\main.c      ****     }
 310:.\main.c      ****     return state;
 311:.\main.c      **** }
 844              		.loc 1 311 0
 845 010e 2046     		mov	r0, r4
 846 0110 03B0     		add	sp, sp, #12
ARM GAS  C:\Users\ASUS\AppData\Local\Temp\ccCANZGp.s 			page 22


 847              		.cfi_def_cfa_offset 12
 848              		@ sp needed
 849 0112 30BD     		pop	{r4, r5, pc}
 850              	.LVL128:
 851              	.L62:
 852              		.align	2
 853              	.L61:
 854 0114 00000000 		.word	.LC0
 855 0118 30000000 		.word	.LC1
 856 011c 64000000 		.word	.LC2
 857 0120 00000000 		.word	lado1
 858 0124 00000000 		.word	rventa1
 859 0128 00000000 		.word	lado2
 860 012c 00000000 		.word	rventa2
 861              		.cfi_endproc
 862              	.LFE66:
 863              		.size	polling_boton, .-polling_boton
 864              		.section	.text.polling_usb,"ax",%progbits
 865              		.align	2
 866              		.global	polling_usb
 867              		.thumb
 868              		.thumb_func
 869              		.type	polling_usb, %function
 870              	polling_usb:
 871              	.LFB67:
 312:.\main.c      **** 
 313:.\main.c      **** void polling_usb(void){
 872              		.loc 1 313 0
 873              		.cfi_startproc
 874              		@ args = 0, pretend = 0, frame = 64
 875              		@ frame_needed = 0, uses_anonymous_args = 0
 876 0000 30B5     		push	{r4, r5, lr}
 877              		.cfi_def_cfa_offset 12
 878              		.cfi_offset 4, -12
 879              		.cfi_offset 5, -8
 880              		.cfi_offset 14, -4
 881 0002 91B0     		sub	sp, sp, #68
 882              		.cfi_def_cfa_offset 80
 314:.\main.c      ****     uint16 count;
 315:.\main.c      ****     uint8 buffer[BUFFER_LEN], x; 
 316:.\main.c      ****     if(USBUART_IsConfigurationChanged() != 0u) 
 883              		.loc 1 316 0
 884 0004 FFF7FEFF 		bl	USBUART_IsConfigurationChanged
 885              	.LVL129:
 886 0008 20B1     		cbz	r0, .L64
 317:.\main.c      ****     {
 318:.\main.c      ****         if(USBUART_GetConfiguration() != 0u) 
 887              		.loc 1 318 0
 888 000a FFF7FEFF 		bl	USBUART_GetConfiguration
 889              	.LVL130:
 890 000e 08B1     		cbz	r0, .L64
 319:.\main.c      ****         {
 320:.\main.c      ****             USBUART_CDC_Init();
 891              		.loc 1 320 0
 892 0010 FFF7FEFF 		bl	USBUART_CDC_Init
 893              	.LVL131:
 894              	.L64:
ARM GAS  C:\Users\ASUS\AppData\Local\Temp\ccCANZGp.s 			page 23


 321:.\main.c      ****         }
 322:.\main.c      ****     } 
 323:.\main.c      ****     if(USBUART_GetConfiguration() != 0u){
 895              		.loc 1 323 0
 896 0014 FFF7FEFF 		bl	USBUART_GetConfiguration
 897              	.LVL132:
 898 0018 0028     		cmp	r0, #0
 899 001a 00F05F82 		beq	.L63
 324:.\main.c      ****         if(USBUART_DataIsReady() != 0u){
 900              		.loc 1 324 0
 901 001e FFF7FEFF 		bl	USBUART_DataIsReady
 902              	.LVL133:
 903 0022 0028     		cmp	r0, #0
 904 0024 00F05A82 		beq	.L63
 325:.\main.c      ****             count = USBUART_GetAll(buffer);
 905              		.loc 1 325 0
 906 0028 6846     		mov	r0, sp
 907 002a FFF7FEFF 		bl	USBUART_GetAll
 908              	.LVL134:
 326:.\main.c      ****             if(count != 0u){
 909              		.loc 1 326 0
 910 002e 0446     		mov	r4, r0
 911 0030 0028     		cmp	r0, #0
 912 0032 00F05382 		beq	.L63
 327:.\main.c      ****                 Led_Write(1);
 913              		.loc 1 327 0
 914 0036 0120     		movs	r0, #1
 915              	.LVL135:
 916 0038 FFF7FEFF 		bl	Led_Write
 917              	.LVL136:
 918              	.L66:
 328:.\main.c      ****                 while(USBUART_CDCIsReady() == 0u);
 919              		.loc 1 328 0 discriminator 1
 920 003c FFF7FEFF 		bl	USBUART_CDCIsReady
 921              	.LVL137:
 922 0040 0028     		cmp	r0, #0
 923 0042 FBD0     		beq	.L66
 329:.\main.c      ****                 if(buffer[count-1] == '*'){    
 924              		.loc 1 329 0
 925 0044 631E     		subs	r3, r4, #1
 926 0046 10AA     		add	r2, sp, #64
 927 0048 1A44     		add	r2, r2, r3
 928 004a 12F8402C 		ldrb	r2, [r2, #-64]	@ zero_extendqisi2
 929 004e 2A2A     		cmp	r2, #42
 930 0050 40F03A82 		bne	.L67
 330:.\main.c      ****                     switch(buffer[0]){
 931              		.loc 1 330 0
 932 0054 9DF80020 		ldrb	r2, [sp]	@ zero_extendqisi2
 933 0058 303A     		subs	r2, r2, #48
 934 005a 172A     		cmp	r2, #23
 935 005c 00F23482 		bhi	.L67
 936 0060 DFE812F0 		tbh	[pc, r2, lsl #1]
 937              	.L69:
 938 0064 1800     		.2byte	(.L68-.L69)/2
 939 0066 1C00     		.2byte	(.L70-.L69)/2
 940 0068 3300     		.2byte	(.L71-.L69)/2
 941 006a 4800     		.2byte	(.L72-.L69)/2
ARM GAS  C:\Users\ASUS\AppData\Local\Temp\ccCANZGp.s 			page 24


 942 006c 7200     		.2byte	(.L73-.L69)/2
 943 006e 9C00     		.2byte	(.L74-.L69)/2
 944 0070 C600     		.2byte	(.L75-.L69)/2
 945 0072 F000     		.2byte	(.L76-.L69)/2
 946 0074 0701     		.2byte	(.L77-.L69)/2
 947 0076 1E01     		.2byte	(.L78-.L69)/2
 948 0078 3202     		.2byte	(.L67-.L69)/2
 949 007a 3202     		.2byte	(.L67-.L69)/2
 950 007c 3202     		.2byte	(.L67-.L69)/2
 951 007e 3202     		.2byte	(.L67-.L69)/2
 952 0080 3202     		.2byte	(.L67-.L69)/2
 953 0082 3202     		.2byte	(.L67-.L69)/2
 954 0084 3202     		.2byte	(.L67-.L69)/2
 955 0086 3501     		.2byte	(.L79-.L69)/2
 956 0088 4C01     		.2byte	(.L80-.L69)/2
 957 008a 6301     		.2byte	(.L81-.L69)/2
 958 008c 7A01     		.2byte	(.L82-.L69)/2
 959 008e BA01     		.2byte	(.L83-.L69)/2
 960 0090 E401     		.2byte	(.L84-.L69)/2
 961 0092 0E02     		.2byte	(.L85-.L69)/2
 962              		.p2align 1
 963              	.L68:
 331:.\main.c      ****                         case '0':                               //Prueba de conexion
 332:.\main.c      ****                             USBUART_PutString("OK");
 964              		.loc 1 332 0
 965 0094 B448     		ldr	r0, .L132
 966 0096 FFF7FEFF 		bl	USBUART_PutString
 967              	.LVL138:
 333:.\main.c      ****                         break;
 968              		.loc 1 333 0
 969 009a 15E2     		b	.L67
 970              	.L70:
 334:.\main.c      ****                         
 335:.\main.c      ****                         case '1':                             //Version
 336:.\main.c      ****                             if((buffer[2] == '6') || (buffer[2] == '7')){
 971              		.loc 1 336 0
 972 009c 9DF80230 		ldrb	r3, [sp, #2]	@ zero_extendqisi2
 973 00a0 A3F13602 		sub	r2, r3, #54
 974 00a4 D2B2     		uxtb	r2, r2
 975 00a6 012A     		cmp	r2, #1
 976 00a8 0BD8     		bhi	.L86
 337:.\main.c      ****                                 version = buffer[2] & 0x0F;
 977              		.loc 1 337 0
 978 00aa 03F00F03 		and	r3, r3, #15
 979 00ae AF4D     		ldr	r5, .L132+4
 980 00b0 2B70     		strb	r3, [r5]
 338:.\main.c      ****                                 USBUART_PutString("OK");
 981              		.loc 1 338 0
 982 00b2 AD48     		ldr	r0, .L132
 983 00b4 FFF7FEFF 		bl	USBUART_PutString
 984              	.LVL139:
 339:.\main.c      ****                                 EEPROM_WriteByte(version,2);
 985              		.loc 1 339 0
 986 00b8 2878     		ldrb	r0, [r5]	@ zero_extendqisi2
 987 00ba 0221     		movs	r1, #2
 988 00bc FFF7FEFF 		bl	EEPROM_WriteByte
 989              	.LVL140:
ARM GAS  C:\Users\ASUS\AppData\Local\Temp\ccCANZGp.s 			page 25


 990 00c0 02E2     		b	.L67
 991              	.L86:
 340:.\main.c      ****                             }else{
 341:.\main.c      ****                                 USBUART_PutString("ERROR");
 992              		.loc 1 341 0
 993 00c2 AB48     		ldr	r0, .L132+8
 994 00c4 FFF7FEFF 		bl	USBUART_PutString
 995              	.LVL141:
 996 00c8 FEE1     		b	.L67
 997              	.L71:
 342:.\main.c      ****                             }      
 343:.\main.c      ****                         break;
 344:.\main.c      ****                             
 345:.\main.c      ****                         case '2':                             //PPUX10
 346:.\main.c      ****                             if((buffer[2] == '1') || (buffer[2] == '0')){
 998              		.loc 1 346 0
 999 00ca 9DF80220 		ldrb	r2, [sp, #2]	@ zero_extendqisi2
 1000 00ce A2F13003 		sub	r3, r2, #48
 1001 00d2 DBB2     		uxtb	r3, r3
 1002 00d4 012B     		cmp	r3, #1
 1003 00d6 09D8     		bhi	.L87
 347:.\main.c      ****                                 ppux10 = buffer[2];
 1004              		.loc 1 347 0
 1005 00d8 A64B     		ldr	r3, .L132+12
 1006 00da 1A70     		strb	r2, [r3]
 348:.\main.c      ****                                 EEPROM_WriteByte(ppux10,3);
 1007              		.loc 1 348 0
 1008 00dc 1878     		ldrb	r0, [r3]	@ zero_extendqisi2
 1009 00de 0321     		movs	r1, #3
 1010 00e0 FFF7FEFF 		bl	EEPROM_WriteByte
 1011              	.LVL142:
 349:.\main.c      ****                                 USBUART_PutString("OK");
 1012              		.loc 1 349 0
 1013 00e4 A048     		ldr	r0, .L132
 1014 00e6 FFF7FEFF 		bl	USBUART_PutString
 1015              	.LVL143:
 1016 00ea EDE1     		b	.L67
 1017              	.L87:
 350:.\main.c      ****                             }else{
 351:.\main.c      ****                                 USBUART_PutString("ERROR");
 1018              		.loc 1 351 0
 1019 00ec A048     		ldr	r0, .L132+8
 1020 00ee FFF7FEFF 		bl	USBUART_PutString
 1021              	.LVL144:
 1022 00f2 E9E1     		b	.L67
 1023              	.L72:
 352:.\main.c      ****                             }                        
 353:.\main.c      ****                         break;
 354:.\main.c      ****                             
 355:.\main.c      ****                         case '3':                             //Nombre
 356:.\main.c      ****                             if(count <= 33){
 1024              		.loc 1 356 0
 1025 00f4 212C     		cmp	r4, #33
 1026 00f6 23D8     		bhi	.L88
 357:.\main.c      ****                                 nombre[0] = count - 3;
 1027              		.loc 1 357 0
 1028 00f8 E21E     		subs	r2, r4, #3
ARM GAS  C:\Users\ASUS\AppData\Local\Temp\ccCANZGp.s 			page 26


 1029 00fa D2B2     		uxtb	r2, r2
 1030 00fc 9E49     		ldr	r1, .L132+16
 1031 00fe 0A70     		strb	r2, [r1]
 1032              	.LVL145:
 358:.\main.c      ****                                 for(x=2; x<(count-1); x++){
 1033              		.loc 1 358 0
 1034 0100 0222     		movs	r2, #2
 1035 0102 08E0     		b	.L89
 1036              	.LVL146:
 1037              	.L90:
 359:.\main.c      ****                                     nombre[x-1] = buffer[x];
 1038              		.loc 1 359 0 discriminator 3
 1039 0104 511E     		subs	r1, r2, #1
 1040 0106 10A8     		add	r0, sp, #64
 1041 0108 1044     		add	r0, r0, r2
 1042 010a 10F8405C 		ldrb	r5, [r0, #-64]	@ zero_extendqisi2
 1043 010e 9A48     		ldr	r0, .L132+16
 1044 0110 4554     		strb	r5, [r0, r1]
 358:.\main.c      ****                                 for(x=2; x<(count-1); x++){
 1045              		.loc 1 358 0 discriminator 3
 1046 0112 0132     		adds	r2, r2, #1
 1047              	.LVL147:
 1048 0114 D2B2     		uxtb	r2, r2
 1049              	.LVL148:
 1050              	.L89:
 358:.\main.c      ****                                 for(x=2; x<(count-1); x++){
 1051              		.loc 1 358 0 is_stmt 0 discriminator 1
 1052 0116 9342     		cmp	r3, r2
 1053 0118 F4DC     		bgt	.L90
 1054 011a 0025     		movs	r5, #0
 1055 011c 06E0     		b	.L91
 1056              	.LVL149:
 1057              	.L92:
 360:.\main.c      ****                                 }
 361:.\main.c      ****                                 for(x=0; x<=nombre[0]; x++){
 362:.\main.c      ****                                     EEPROM_WriteByte(nombre[x],(x+4));
 1058              		.loc 1 362 0 is_stmt 1 discriminator 3
 1059 011e 964B     		ldr	r3, .L132+16
 1060 0120 585D     		ldrb	r0, [r3, r5]	@ zero_extendqisi2
 1061 0122 291D     		adds	r1, r5, #4
 1062 0124 FFF7FEFF 		bl	EEPROM_WriteByte
 1063              	.LVL150:
 361:.\main.c      ****                                     EEPROM_WriteByte(nombre[x],(x+4));
 1064              		.loc 1 361 0 discriminator 3
 1065 0128 0135     		adds	r5, r5, #1
 1066              	.LVL151:
 1067 012a EDB2     		uxtb	r5, r5
 1068              	.LVL152:
 1069              	.L91:
 361:.\main.c      ****                                     EEPROM_WriteByte(nombre[x],(x+4));
 1070              		.loc 1 361 0 is_stmt 0 discriminator 1
 1071 012c 924B     		ldr	r3, .L132+16
 1072 012e 1B78     		ldrb	r3, [r3]	@ zero_extendqisi2
 1073 0130 DBB2     		uxtb	r3, r3
 1074 0132 AB42     		cmp	r3, r5
 1075 0134 F3D2     		bcs	.L92
 363:.\main.c      ****                                 }
ARM GAS  C:\Users\ASUS\AppData\Local\Temp\ccCANZGp.s 			page 27


 364:.\main.c      ****                                 USBUART_PutChar(nombre[0]);
 1076              		.loc 1 364 0 is_stmt 1
 1077 0136 904B     		ldr	r3, .L132+16
 1078 0138 1878     		ldrb	r0, [r3]	@ zero_extendqisi2
 1079 013a FFF7FEFF 		bl	USBUART_PutChar
 1080              	.LVL153:
 1081 013e C3E1     		b	.L67
 1082              	.LVL154:
 1083              	.L88:
 365:.\main.c      ****                             }else{
 366:.\main.c      ****                                 USBUART_PutString("ERROR");
 1084              		.loc 1 366 0
 1085 0140 8B48     		ldr	r0, .L132+8
 1086 0142 FFF7FEFF 		bl	USBUART_PutString
 1087              	.LVL155:
 1088 0146 BFE1     		b	.L67
 1089              	.L73:
 367:.\main.c      ****                             }                        
 368:.\main.c      ****                         break;  
 369:.\main.c      ****                             
 370:.\main.c      ****                         case '4':                             //Nit
 371:.\main.c      ****                             if(count <= 18){
 1090              		.loc 1 371 0
 1091 0148 122C     		cmp	r4, #18
 1092 014a 23D8     		bhi	.L93
 372:.\main.c      ****                                 nit[0] = count - 3;
 1093              		.loc 1 372 0
 1094 014c E21E     		subs	r2, r4, #3
 1095 014e D2B2     		uxtb	r2, r2
 1096 0150 8A49     		ldr	r1, .L132+20
 1097 0152 0A70     		strb	r2, [r1]
 1098              	.LVL156:
 373:.\main.c      ****                                 for(x=2; x<(count-1); x++){
 1099              		.loc 1 373 0
 1100 0154 0222     		movs	r2, #2
 1101 0156 08E0     		b	.L94
 1102              	.LVL157:
 1103              	.L95:
 374:.\main.c      ****                                     nit[x-1] = buffer[x];
 1104              		.loc 1 374 0 discriminator 3
 1105 0158 511E     		subs	r1, r2, #1
 1106 015a 10A8     		add	r0, sp, #64
 1107 015c 1044     		add	r0, r0, r2
 1108 015e 10F8405C 		ldrb	r5, [r0, #-64]	@ zero_extendqisi2
 1109 0162 8648     		ldr	r0, .L132+20
 1110 0164 4554     		strb	r5, [r0, r1]
 373:.\main.c      ****                                 for(x=2; x<(count-1); x++){
 1111              		.loc 1 373 0 discriminator 3
 1112 0166 0132     		adds	r2, r2, #1
 1113              	.LVL158:
 1114 0168 D2B2     		uxtb	r2, r2
 1115              	.LVL159:
 1116              	.L94:
 373:.\main.c      ****                                 for(x=2; x<(count-1); x++){
 1117              		.loc 1 373 0 is_stmt 0 discriminator 1
 1118 016a 9342     		cmp	r3, r2
 1119 016c F4DC     		bgt	.L95
ARM GAS  C:\Users\ASUS\AppData\Local\Temp\ccCANZGp.s 			page 28


 1120 016e 0025     		movs	r5, #0
 1121 0170 07E0     		b	.L96
 1122              	.LVL160:
 1123              	.L97:
 375:.\main.c      ****                                 }
 376:.\main.c      ****                                 for(x=0; x<=nit[0]; x++){
 377:.\main.c      ****                                     EEPROM_WriteByte(nit[x],(x+34));
 1124              		.loc 1 377 0 is_stmt 1 discriminator 3
 1125 0172 824B     		ldr	r3, .L132+20
 1126 0174 585D     		ldrb	r0, [r3, r5]	@ zero_extendqisi2
 1127 0176 05F12201 		add	r1, r5, #34
 1128 017a FFF7FEFF 		bl	EEPROM_WriteByte
 1129              	.LVL161:
 376:.\main.c      ****                                     EEPROM_WriteByte(nit[x],(x+34));
 1130              		.loc 1 376 0 discriminator 3
 1131 017e 0135     		adds	r5, r5, #1
 1132              	.LVL162:
 1133 0180 EDB2     		uxtb	r5, r5
 1134              	.LVL163:
 1135              	.L96:
 376:.\main.c      ****                                     EEPROM_WriteByte(nit[x],(x+34));
 1136              		.loc 1 376 0 is_stmt 0 discriminator 1
 1137 0182 7E4B     		ldr	r3, .L132+20
 1138 0184 1B78     		ldrb	r3, [r3]	@ zero_extendqisi2
 1139 0186 DBB2     		uxtb	r3, r3
 1140 0188 AB42     		cmp	r3, r5
 1141 018a F2D2     		bcs	.L97
 378:.\main.c      ****                                 }                        
 379:.\main.c      ****                                 USBUART_PutString("OK");
 1142              		.loc 1 379 0 is_stmt 1
 1143 018c 7648     		ldr	r0, .L132
 1144 018e FFF7FEFF 		bl	USBUART_PutString
 1145              	.LVL164:
 1146 0192 99E1     		b	.L67
 1147              	.LVL165:
 1148              	.L93:
 380:.\main.c      ****                             }else{
 381:.\main.c      ****                                 USBUART_PutString("ERROR");
 1149              		.loc 1 381 0
 1150 0194 7648     		ldr	r0, .L132+8
 1151 0196 FFF7FEFF 		bl	USBUART_PutString
 1152              	.LVL166:
 1153 019a 95E1     		b	.L67
 1154              	.L74:
 382:.\main.c      ****                             }                        
 383:.\main.c      ****                         break;
 384:.\main.c      ****                             
 385:.\main.c      ****                         case '5':                             //Telefono
 386:.\main.c      ****                             if(count <= 18){
 1155              		.loc 1 386 0
 1156 019c 122C     		cmp	r4, #18
 1157 019e 23D8     		bhi	.L98
 387:.\main.c      ****                                 telefono[0] = count - 3;
 1158              		.loc 1 387 0
 1159 01a0 E21E     		subs	r2, r4, #3
 1160 01a2 D2B2     		uxtb	r2, r2
 1161 01a4 7649     		ldr	r1, .L132+24
ARM GAS  C:\Users\ASUS\AppData\Local\Temp\ccCANZGp.s 			page 29


 1162 01a6 0A70     		strb	r2, [r1]
 1163              	.LVL167:
 388:.\main.c      ****                                 for(x=2; x<(count-1); x++){
 1164              		.loc 1 388 0
 1165 01a8 0222     		movs	r2, #2
 1166 01aa 08E0     		b	.L99
 1167              	.LVL168:
 1168              	.L100:
 389:.\main.c      ****                                     telefono[x-1] = buffer[x];
 1169              		.loc 1 389 0 discriminator 3
 1170 01ac 511E     		subs	r1, r2, #1
 1171 01ae 10A8     		add	r0, sp, #64
 1172 01b0 1044     		add	r0, r0, r2
 1173 01b2 10F8405C 		ldrb	r5, [r0, #-64]	@ zero_extendqisi2
 1174 01b6 7248     		ldr	r0, .L132+24
 1175 01b8 4554     		strb	r5, [r0, r1]
 388:.\main.c      ****                                 for(x=2; x<(count-1); x++){
 1176              		.loc 1 388 0 discriminator 3
 1177 01ba 0132     		adds	r2, r2, #1
 1178              	.LVL169:
 1179 01bc D2B2     		uxtb	r2, r2
 1180              	.LVL170:
 1181              	.L99:
 388:.\main.c      ****                                 for(x=2; x<(count-1); x++){
 1182              		.loc 1 388 0 is_stmt 0 discriminator 1
 1183 01be 9342     		cmp	r3, r2
 1184 01c0 F4DC     		bgt	.L100
 1185 01c2 0025     		movs	r5, #0
 1186 01c4 07E0     		b	.L101
 1187              	.LVL171:
 1188              	.L102:
 390:.\main.c      ****                                 }
 391:.\main.c      ****                                 for(x=0; x<=telefono[0]; x++){
 392:.\main.c      ****                                     EEPROM_WriteByte(telefono[x],(x+49));
 1189              		.loc 1 392 0 is_stmt 1 discriminator 3
 1190 01c6 6E4B     		ldr	r3, .L132+24
 1191 01c8 585D     		ldrb	r0, [r3, r5]	@ zero_extendqisi2
 1192 01ca 05F13101 		add	r1, r5, #49
 1193 01ce FFF7FEFF 		bl	EEPROM_WriteByte
 1194              	.LVL172:
 391:.\main.c      ****                                     EEPROM_WriteByte(telefono[x],(x+49));
 1195              		.loc 1 391 0 discriminator 3
 1196 01d2 0135     		adds	r5, r5, #1
 1197              	.LVL173:
 1198 01d4 EDB2     		uxtb	r5, r5
 1199              	.LVL174:
 1200              	.L101:
 391:.\main.c      ****                                     EEPROM_WriteByte(telefono[x],(x+49));
 1201              		.loc 1 391 0 is_stmt 0 discriminator 1
 1202 01d6 6A4B     		ldr	r3, .L132+24
 1203 01d8 1B78     		ldrb	r3, [r3]	@ zero_extendqisi2
 1204 01da DBB2     		uxtb	r3, r3
 1205 01dc AB42     		cmp	r3, r5
 1206 01de F2D2     		bcs	.L102
 393:.\main.c      ****                                 }                        
 394:.\main.c      ****                                 USBUART_PutString("OK");
 1207              		.loc 1 394 0 is_stmt 1
ARM GAS  C:\Users\ASUS\AppData\Local\Temp\ccCANZGp.s 			page 30


 1208 01e0 6148     		ldr	r0, .L132
 1209 01e2 FFF7FEFF 		bl	USBUART_PutString
 1210              	.LVL175:
 1211 01e6 6FE1     		b	.L67
 1212              	.LVL176:
 1213              	.L98:
 395:.\main.c      ****                             }else{
 396:.\main.c      ****                                 USBUART_PutString("ERROR");
 1214              		.loc 1 396 0
 1215 01e8 6148     		ldr	r0, .L132+8
 1216 01ea FFF7FEFF 		bl	USBUART_PutString
 1217              	.LVL177:
 1218 01ee 6BE1     		b	.L67
 1219              	.L75:
 397:.\main.c      ****                             }                        
 398:.\main.c      ****                         break;
 399:.\main.c      ****                             
 400:.\main.c      ****                         case '6':                             //Direccion
 401:.\main.c      ****                             if(count <= 33){
 1220              		.loc 1 401 0
 1221 01f0 212C     		cmp	r4, #33
 1222 01f2 23D8     		bhi	.L103
 402:.\main.c      ****                                 direccion[0] = count - 3;
 1223              		.loc 1 402 0
 1224 01f4 E21E     		subs	r2, r4, #3
 1225 01f6 D2B2     		uxtb	r2, r2
 1226 01f8 6249     		ldr	r1, .L132+28
 1227 01fa 0A70     		strb	r2, [r1]
 1228              	.LVL178:
 403:.\main.c      ****                                 for(x=2; x<(count-1); x++){
 1229              		.loc 1 403 0
 1230 01fc 0222     		movs	r2, #2
 1231 01fe 08E0     		b	.L104
 1232              	.LVL179:
 1233              	.L105:
 404:.\main.c      ****                                     direccion[x-1] = buffer[x];
 1234              		.loc 1 404 0 discriminator 3
 1235 0200 511E     		subs	r1, r2, #1
 1236 0202 10A8     		add	r0, sp, #64
 1237 0204 1044     		add	r0, r0, r2
 1238 0206 10F8405C 		ldrb	r5, [r0, #-64]	@ zero_extendqisi2
 1239 020a 5E48     		ldr	r0, .L132+28
 1240 020c 4554     		strb	r5, [r0, r1]
 403:.\main.c      ****                                 for(x=2; x<(count-1); x++){
 1241              		.loc 1 403 0 discriminator 3
 1242 020e 0132     		adds	r2, r2, #1
 1243              	.LVL180:
 1244 0210 D2B2     		uxtb	r2, r2
 1245              	.LVL181:
 1246              	.L104:
 403:.\main.c      ****                                 for(x=2; x<(count-1); x++){
 1247              		.loc 1 403 0 is_stmt 0 discriminator 1
 1248 0212 9342     		cmp	r3, r2
 1249 0214 F4DC     		bgt	.L105
 1250 0216 0025     		movs	r5, #0
 1251 0218 07E0     		b	.L106
 1252              	.LVL182:
ARM GAS  C:\Users\ASUS\AppData\Local\Temp\ccCANZGp.s 			page 31


 1253              	.L107:
 405:.\main.c      ****                                 }
 406:.\main.c      ****                                 for(x=0; x<=direccion[0]; x++){
 407:.\main.c      ****                                     EEPROM_WriteByte(direccion[x],(x+64));
 1254              		.loc 1 407 0 is_stmt 1 discriminator 3
 1255 021a 5A4B     		ldr	r3, .L132+28
 1256 021c 585D     		ldrb	r0, [r3, r5]	@ zero_extendqisi2
 1257 021e 05F14001 		add	r1, r5, #64
 1258 0222 FFF7FEFF 		bl	EEPROM_WriteByte
 1259              	.LVL183:
 406:.\main.c      ****                                     EEPROM_WriteByte(direccion[x],(x+64));
 1260              		.loc 1 406 0 discriminator 3
 1261 0226 0135     		adds	r5, r5, #1
 1262              	.LVL184:
 1263 0228 EDB2     		uxtb	r5, r5
 1264              	.LVL185:
 1265              	.L106:
 406:.\main.c      ****                                     EEPROM_WriteByte(direccion[x],(x+64));
 1266              		.loc 1 406 0 is_stmt 0 discriminator 1
 1267 022a 564B     		ldr	r3, .L132+28
 1268 022c 1B78     		ldrb	r3, [r3]	@ zero_extendqisi2
 1269 022e DBB2     		uxtb	r3, r3
 1270 0230 AB42     		cmp	r3, r5
 1271 0232 F2D2     		bcs	.L107
 408:.\main.c      ****                                 }                        
 409:.\main.c      ****                                 USBUART_PutString("OK");
 1272              		.loc 1 409 0 is_stmt 1
 1273 0234 4C48     		ldr	r0, .L132
 1274 0236 FFF7FEFF 		bl	USBUART_PutString
 1275              	.LVL186:
 1276 023a 45E1     		b	.L67
 1277              	.LVL187:
 1278              	.L103:
 410:.\main.c      ****                             }else{
 411:.\main.c      ****                                 USBUART_PutString("ERROR");
 1279              		.loc 1 411 0
 1280 023c 4C48     		ldr	r0, .L132+8
 1281 023e FFF7FEFF 		bl	USBUART_PutString
 1282              	.LVL188:
 1283 0242 41E1     		b	.L67
 1284              	.L76:
 412:.\main.c      ****                             }                        
 413:.\main.c      ****                         break;
 414:.\main.c      **** 
 415:.\main.c      ****                         case '7':                             //Producto Manguera 1 Lado 1
 416:.\main.c      ****                             if((buffer[2] == '1') || (buffer[2] == '2') || (buffer[2] == '3')){
 1285              		.loc 1 416 0
 1286 0244 9DF80220 		ldrb	r2, [sp, #2]	@ zero_extendqisi2
 1287 0248 A2F13103 		sub	r3, r2, #49
 1288 024c DBB2     		uxtb	r3, r3
 1289 024e 022B     		cmp	r3, #2
 1290 0250 0BD8     		bhi	.L108
 417:.\main.c      ****                                 lado1.grado[0][0] = buffer[2];
 1291              		.loc 1 417 0
 1292 0252 4D4B     		ldr	r3, .L132+32
 1293 0254 83F85820 		strb	r2, [r3, #88]
 418:.\main.c      ****                                 EEPROM_WriteByte(lado1.grado[0][0],94);
ARM GAS  C:\Users\ASUS\AppData\Local\Temp\ccCANZGp.s 			page 32


 1294              		.loc 1 418 0
 1295 0258 93F85800 		ldrb	r0, [r3, #88]	@ zero_extendqisi2
 1296 025c 5E21     		movs	r1, #94
 1297 025e FFF7FEFF 		bl	EEPROM_WriteByte
 1298              	.LVL189:
 419:.\main.c      ****                                 USBUART_PutString("OK");
 1299              		.loc 1 419 0
 1300 0262 4148     		ldr	r0, .L132
 1301 0264 FFF7FEFF 		bl	USBUART_PutString
 1302              	.LVL190:
 1303 0268 2EE1     		b	.L67
 1304              	.L108:
 420:.\main.c      ****                             }else{
 421:.\main.c      ****                                 USBUART_PutString("ERROR");
 1305              		.loc 1 421 0
 1306 026a 4148     		ldr	r0, .L132+8
 1307 026c FFF7FEFF 		bl	USBUART_PutString
 1308              	.LVL191:
 1309 0270 2AE1     		b	.L67
 1310              	.L77:
 422:.\main.c      ****                             }                        
 423:.\main.c      ****                         break; 
 424:.\main.c      ****                             
 425:.\main.c      ****                         case '8':                             //Producto Manguera 2 Lado 1
 426:.\main.c      ****                             if((buffer[2] == '1') || (buffer[2] == '2') || (buffer[2] == '3')){
 1311              		.loc 1 426 0
 1312 0272 9DF80220 		ldrb	r2, [sp, #2]	@ zero_extendqisi2
 1313 0276 A2F13103 		sub	r3, r2, #49
 1314 027a DBB2     		uxtb	r3, r3
 1315 027c 022B     		cmp	r3, #2
 1316 027e 0BD8     		bhi	.L109
 427:.\main.c      ****                                 lado1.grado[1][0] = buffer[2];
 1317              		.loc 1 427 0
 1318 0280 414B     		ldr	r3, .L132+32
 1319 0282 83F85920 		strb	r2, [r3, #89]
 428:.\main.c      ****                                 EEPROM_WriteByte(lado1.grado[1][0],95);
 1320              		.loc 1 428 0
 1321 0286 93F85900 		ldrb	r0, [r3, #89]	@ zero_extendqisi2
 1322 028a 5F21     		movs	r1, #95
 1323 028c FFF7FEFF 		bl	EEPROM_WriteByte
 1324              	.LVL192:
 429:.\main.c      ****                                 USBUART_PutString("OK");
 1325              		.loc 1 429 0
 1326 0290 3548     		ldr	r0, .L132
 1327 0292 FFF7FEFF 		bl	USBUART_PutString
 1328              	.LVL193:
 1329 0296 17E1     		b	.L67
 1330              	.L109:
 430:.\main.c      ****                             }else{
 431:.\main.c      ****                                 USBUART_PutString("ERROR");
 1331              		.loc 1 431 0
 1332 0298 3548     		ldr	r0, .L132+8
 1333 029a FFF7FEFF 		bl	USBUART_PutString
 1334              	.LVL194:
 1335 029e 13E1     		b	.L67
 1336              	.L78:
 432:.\main.c      ****                             }                        
ARM GAS  C:\Users\ASUS\AppData\Local\Temp\ccCANZGp.s 			page 33


 433:.\main.c      ****                         break; 
 434:.\main.c      ****                             
 435:.\main.c      ****                         case '9':                             //Producto Manguera 3 Lado 1
 436:.\main.c      ****                             if((buffer[2] == '1') || (buffer[2] == '2') || (buffer[2] == '3')){
 1337              		.loc 1 436 0
 1338 02a0 9DF80220 		ldrb	r2, [sp, #2]	@ zero_extendqisi2
 1339 02a4 A2F13103 		sub	r3, r2, #49
 1340 02a8 DBB2     		uxtb	r3, r3
 1341 02aa 022B     		cmp	r3, #2
 1342 02ac 0BD8     		bhi	.L110
 437:.\main.c      ****                                 lado1.grado[2][0] = buffer[2];
 1343              		.loc 1 437 0
 1344 02ae 364B     		ldr	r3, .L132+32
 1345 02b0 83F85A20 		strb	r2, [r3, #90]
 438:.\main.c      ****                                 EEPROM_WriteByte(lado1.grado[2][0],96);
 1346              		.loc 1 438 0
 1347 02b4 93F85A00 		ldrb	r0, [r3, #90]	@ zero_extendqisi2
 1348 02b8 6021     		movs	r1, #96
 1349 02ba FFF7FEFF 		bl	EEPROM_WriteByte
 1350              	.LVL195:
 439:.\main.c      ****                                 USBUART_PutString("OK");
 1351              		.loc 1 439 0
 1352 02be 2A48     		ldr	r0, .L132
 1353 02c0 FFF7FEFF 		bl	USBUART_PutString
 1354              	.LVL196:
 1355 02c4 00E1     		b	.L67
 1356              	.L110:
 440:.\main.c      ****                             }else{
 441:.\main.c      ****                                 USBUART_PutString("ERROR");
 1357              		.loc 1 441 0
 1358 02c6 2A48     		ldr	r0, .L132+8
 1359 02c8 FFF7FEFF 		bl	USBUART_PutString
 1360              	.LVL197:
 1361 02cc FCE0     		b	.L67
 1362              	.L79:
 442:.\main.c      ****                             }                        
 443:.\main.c      ****                         break;  
 444:.\main.c      ****                             
 445:.\main.c      ****                         case 'A':                            //Producto Manguera 1 Lado 2
 446:.\main.c      ****                             if((buffer[2] == '1') || (buffer[2] == '2') || (buffer[2] == '3')){
 1363              		.loc 1 446 0
 1364 02ce 9DF80220 		ldrb	r2, [sp, #2]	@ zero_extendqisi2
 1365 02d2 A2F13103 		sub	r3, r2, #49
 1366 02d6 DBB2     		uxtb	r3, r3
 1367 02d8 022B     		cmp	r3, #2
 1368 02da 0BD8     		bhi	.L111
 447:.\main.c      ****                                 lado2.grado[0][0] = buffer[2];
 1369              		.loc 1 447 0
 1370 02dc 2B4B     		ldr	r3, .L132+36
 1371 02de 83F85820 		strb	r2, [r3, #88]
 448:.\main.c      ****                                 EEPROM_WriteByte(lado2.grado[0][0],142);
 1372              		.loc 1 448 0
 1373 02e2 93F85800 		ldrb	r0, [r3, #88]	@ zero_extendqisi2
 1374 02e6 8E21     		movs	r1, #142
 1375 02e8 FFF7FEFF 		bl	EEPROM_WriteByte
 1376              	.LVL198:
 449:.\main.c      ****                                 USBUART_PutString("OK");
ARM GAS  C:\Users\ASUS\AppData\Local\Temp\ccCANZGp.s 			page 34


 1377              		.loc 1 449 0
 1378 02ec 1E48     		ldr	r0, .L132
 1379 02ee FFF7FEFF 		bl	USBUART_PutString
 1380              	.LVL199:
 1381 02f2 E9E0     		b	.L67
 1382              	.L111:
 450:.\main.c      ****                             }else{
 451:.\main.c      ****                                 USBUART_PutString("ERROR");
 1383              		.loc 1 451 0
 1384 02f4 1E48     		ldr	r0, .L132+8
 1385 02f6 FFF7FEFF 		bl	USBUART_PutString
 1386              	.LVL200:
 1387 02fa E5E0     		b	.L67
 1388              	.L80:
 452:.\main.c      ****                             }                        
 453:.\main.c      ****                         break; 
 454:.\main.c      ****                             
 455:.\main.c      ****                         case 'B':                            //Producto Manguera 2 Lado 2
 456:.\main.c      ****                             if((buffer[2] == '1') || (buffer[2] == '2') || (buffer[2] == '3')){
 1389              		.loc 1 456 0
 1390 02fc 9DF80220 		ldrb	r2, [sp, #2]	@ zero_extendqisi2
 1391 0300 A2F13103 		sub	r3, r2, #49
 1392 0304 DBB2     		uxtb	r3, r3
 1393 0306 022B     		cmp	r3, #2
 1394 0308 0BD8     		bhi	.L112
 457:.\main.c      ****                                 lado2.grado[1][0] = buffer[2];
 1395              		.loc 1 457 0
 1396 030a 204B     		ldr	r3, .L132+36
 1397 030c 83F85920 		strb	r2, [r3, #89]
 458:.\main.c      ****                                 EEPROM_WriteByte(lado2.grado[1][0],143);
 1398              		.loc 1 458 0
 1399 0310 93F85900 		ldrb	r0, [r3, #89]	@ zero_extendqisi2
 1400 0314 8F21     		movs	r1, #143
 1401 0316 FFF7FEFF 		bl	EEPROM_WriteByte
 1402              	.LVL201:
 459:.\main.c      ****                                 USBUART_PutString("OK");
 1403              		.loc 1 459 0
 1404 031a 1348     		ldr	r0, .L132
 1405 031c FFF7FEFF 		bl	USBUART_PutString
 1406              	.LVL202:
 1407 0320 D2E0     		b	.L67
 1408              	.L112:
 460:.\main.c      ****                             }else{
 461:.\main.c      ****                                 USBUART_PutString("ERROR");
 1409              		.loc 1 461 0
 1410 0322 1348     		ldr	r0, .L132+8
 1411 0324 FFF7FEFF 		bl	USBUART_PutString
 1412              	.LVL203:
 1413 0328 CEE0     		b	.L67
 1414              	.L81:
 462:.\main.c      ****                             }                        
 463:.\main.c      ****                         break;
 464:.\main.c      ****                             
 465:.\main.c      ****                         case 'C':                            //Producto Manguera 3 Lado 2
 466:.\main.c      ****                             if((buffer[2] == '1') || (buffer[2] == '2') || (buffer[2] == '3')){
 1415              		.loc 1 466 0
 1416 032a 9DF80220 		ldrb	r2, [sp, #2]	@ zero_extendqisi2
ARM GAS  C:\Users\ASUS\AppData\Local\Temp\ccCANZGp.s 			page 35


 1417 032e A2F13103 		sub	r3, r2, #49
 1418 0332 DBB2     		uxtb	r3, r3
 1419 0334 022B     		cmp	r3, #2
 1420 0336 0BD8     		bhi	.L113
 467:.\main.c      ****                                 lado2.grado[2][0] = buffer[2];
 1421              		.loc 1 467 0
 1422 0338 144B     		ldr	r3, .L132+36
 1423 033a 83F85A20 		strb	r2, [r3, #90]
 468:.\main.c      ****                                 EEPROM_WriteByte(lado2.grado[2][0],144);
 1424              		.loc 1 468 0
 1425 033e 93F85A00 		ldrb	r0, [r3, #90]	@ zero_extendqisi2
 1426 0342 9021     		movs	r1, #144
 1427 0344 FFF7FEFF 		bl	EEPROM_WriteByte
 1428              	.LVL204:
 469:.\main.c      ****                                 USBUART_PutString("OK");
 1429              		.loc 1 469 0
 1430 0348 0748     		ldr	r0, .L132
 1431 034a FFF7FEFF 		bl	USBUART_PutString
 1432              	.LVL205:
 1433 034e BBE0     		b	.L67
 1434              	.L113:
 470:.\main.c      ****                             }else{
 471:.\main.c      ****                                 USBUART_PutString("ERROR");
 1435              		.loc 1 471 0
 1436 0350 0748     		ldr	r0, .L132+8
 1437 0352 FFF7FEFF 		bl	USBUART_PutString
 1438              	.LVL206:
 1439 0356 B7E0     		b	.L67
 1440              	.L82:
 472:.\main.c      ****                             }                        
 473:.\main.c      ****                         break;
 474:.\main.c      ****                         
 475:.\main.c      ****                         case 'D':                             //Nombre Producto 1
 476:.\main.c      ****                             if(count <= 18){
 1441              		.loc 1 476 0
 1442 0358 122C     		cmp	r4, #18
 1443 035a 39D8     		bhi	.L114
 477:.\main.c      ****                                 nombre_pro1[0] = count - 3;
 1444              		.loc 1 477 0
 1445 035c E21E     		subs	r2, r4, #3
 1446 035e D2B2     		uxtb	r2, r2
 1447 0360 0B49     		ldr	r1, .L132+40
 1448 0362 0A70     		strb	r2, [r1]
 1449              	.LVL207:
 478:.\main.c      ****                                 for(x=2; x<(count-1); x++){
 1450              		.loc 1 478 0
 1451 0364 0222     		movs	r2, #2
 1452 0366 1EE0     		b	.L115
 1453              	.L133:
 1454              		.align	2
 1455              	.L132:
 1456 0368 80000000 		.word	.LC3
 1457 036c 00000000 		.word	version
 1458 0370 84000000 		.word	.LC4
 1459 0374 00000000 		.word	ppux10
 1460 0378 00000000 		.word	nombre
 1461 037c 00000000 		.word	nit
ARM GAS  C:\Users\ASUS\AppData\Local\Temp\ccCANZGp.s 			page 36


 1462 0380 00000000 		.word	telefono
 1463 0384 00000000 		.word	direccion
 1464 0388 00000000 		.word	lado1
 1465 038c 00000000 		.word	lado2
 1466 0390 00000000 		.word	nombre_pro1
 1467              	.LVL208:
 1468              	.L116:
 479:.\main.c      ****                                     nombre_pro1[x-1] = buffer[x];
 1469              		.loc 1 479 0 discriminator 3
 1470 0394 511E     		subs	r1, r2, #1
 1471 0396 10A8     		add	r0, sp, #64
 1472 0398 1044     		add	r0, r0, r2
 1473 039a 10F8405C 		ldrb	r5, [r0, #-64]	@ zero_extendqisi2
 1474 039e 5048     		ldr	r0, .L134
 1475 03a0 4554     		strb	r5, [r0, r1]
 478:.\main.c      ****                                 for(x=2; x<(count-1); x++){
 1476              		.loc 1 478 0 discriminator 3
 1477 03a2 0132     		adds	r2, r2, #1
 1478              	.LVL209:
 1479 03a4 D2B2     		uxtb	r2, r2
 1480              	.LVL210:
 1481              	.L115:
 478:.\main.c      ****                                 for(x=2; x<(count-1); x++){
 1482              		.loc 1 478 0 is_stmt 0 discriminator 1
 1483 03a6 9342     		cmp	r3, r2
 1484 03a8 F4DC     		bgt	.L116
 1485 03aa 0025     		movs	r5, #0
 1486 03ac 07E0     		b	.L117
 1487              	.LVL211:
 1488              	.L118:
 480:.\main.c      ****                                 }
 481:.\main.c      ****                                 for(x=0; x<=nit[0]; x++){
 482:.\main.c      ****                                     EEPROM_WriteByte(nombre_pro1[x],(x+97));
 1489              		.loc 1 482 0 is_stmt 1 discriminator 3
 1490 03ae 4C4B     		ldr	r3, .L134
 1491 03b0 585D     		ldrb	r0, [r3, r5]	@ zero_extendqisi2
 1492 03b2 05F16101 		add	r1, r5, #97
 1493 03b6 FFF7FEFF 		bl	EEPROM_WriteByte
 1494              	.LVL212:
 481:.\main.c      ****                                     EEPROM_WriteByte(nombre_pro1[x],(x+97));
 1495              		.loc 1 481 0 discriminator 3
 1496 03ba 0135     		adds	r5, r5, #1
 1497              	.LVL213:
 1498 03bc EDB2     		uxtb	r5, r5
 1499              	.LVL214:
 1500              	.L117:
 481:.\main.c      ****                                     EEPROM_WriteByte(nombre_pro1[x],(x+97));
 1501              		.loc 1 481 0 is_stmt 0 discriminator 1
 1502 03be 494B     		ldr	r3, .L134+4
 1503 03c0 1B78     		ldrb	r3, [r3]	@ zero_extendqisi2
 1504 03c2 DBB2     		uxtb	r3, r3
 1505 03c4 AB42     		cmp	r3, r5
 1506 03c6 F2D2     		bcs	.L118
 483:.\main.c      ****                                 }                        
 484:.\main.c      ****                                 USBUART_PutString("OK");
 1507              		.loc 1 484 0 is_stmt 1
 1508 03c8 4748     		ldr	r0, .L134+8
ARM GAS  C:\Users\ASUS\AppData\Local\Temp\ccCANZGp.s 			page 37


 1509 03ca FFF7FEFF 		bl	USBUART_PutString
 1510              	.LVL215:
 1511 03ce 7BE0     		b	.L67
 1512              	.LVL216:
 1513              	.L114:
 485:.\main.c      ****                             }else{
 486:.\main.c      ****                                 USBUART_PutString("ERROR");
 1514              		.loc 1 486 0
 1515 03d0 4648     		ldr	r0, .L134+12
 1516 03d2 FFF7FEFF 		bl	USBUART_PutString
 1517              	.LVL217:
 1518 03d6 77E0     		b	.L67
 1519              	.L83:
 487:.\main.c      ****                             }                        
 488:.\main.c      ****                         break; 
 489:.\main.c      ****                             
 490:.\main.c      ****                         case 'E':                             //Nombre Producto 2
 491:.\main.c      ****                             if(count <= 18){
 1520              		.loc 1 491 0
 1521 03d8 122C     		cmp	r4, #18
 1522 03da 23D8     		bhi	.L119
 492:.\main.c      ****                                 nombre_pro2[0] = count - 3;
 1523              		.loc 1 492 0
 1524 03dc E21E     		subs	r2, r4, #3
 1525 03de D2B2     		uxtb	r2, r2
 1526 03e0 4349     		ldr	r1, .L134+16
 1527 03e2 0A70     		strb	r2, [r1]
 1528              	.LVL218:
 493:.\main.c      ****                                 for(x=2; x<(count-1); x++){
 1529              		.loc 1 493 0
 1530 03e4 0222     		movs	r2, #2
 1531 03e6 08E0     		b	.L120
 1532              	.LVL219:
 1533              	.L121:
 494:.\main.c      ****                                     nombre_pro2[x-1] = buffer[x];
 1534              		.loc 1 494 0 discriminator 3
 1535 03e8 511E     		subs	r1, r2, #1
 1536 03ea 10A8     		add	r0, sp, #64
 1537 03ec 1044     		add	r0, r0, r2
 1538 03ee 10F8405C 		ldrb	r5, [r0, #-64]	@ zero_extendqisi2
 1539 03f2 3F48     		ldr	r0, .L134+16
 1540 03f4 4554     		strb	r5, [r0, r1]
 493:.\main.c      ****                                 for(x=2; x<(count-1); x++){
 1541              		.loc 1 493 0 discriminator 3
 1542 03f6 0132     		adds	r2, r2, #1
 1543              	.LVL220:
 1544 03f8 D2B2     		uxtb	r2, r2
 1545              	.LVL221:
 1546              	.L120:
 493:.\main.c      ****                                 for(x=2; x<(count-1); x++){
 1547              		.loc 1 493 0 is_stmt 0 discriminator 1
 1548 03fa 9342     		cmp	r3, r2
 1549 03fc F4DC     		bgt	.L121
 1550 03fe 0025     		movs	r5, #0
 1551 0400 07E0     		b	.L122
 1552              	.LVL222:
 1553              	.L123:
ARM GAS  C:\Users\ASUS\AppData\Local\Temp\ccCANZGp.s 			page 38


 495:.\main.c      ****                                 }
 496:.\main.c      ****                                 for(x=0; x<=nit[0]; x++){
 497:.\main.c      ****                                     EEPROM_WriteByte(nombre_pro2[x],(x+112));
 1554              		.loc 1 497 0 is_stmt 1 discriminator 3
 1555 0402 3B4B     		ldr	r3, .L134+16
 1556 0404 585D     		ldrb	r0, [r3, r5]	@ zero_extendqisi2
 1557 0406 05F17001 		add	r1, r5, #112
 1558 040a FFF7FEFF 		bl	EEPROM_WriteByte
 1559              	.LVL223:
 496:.\main.c      ****                                     EEPROM_WriteByte(nombre_pro2[x],(x+112));
 1560              		.loc 1 496 0 discriminator 3
 1561 040e 0135     		adds	r5, r5, #1
 1562              	.LVL224:
 1563 0410 EDB2     		uxtb	r5, r5
 1564              	.LVL225:
 1565              	.L122:
 496:.\main.c      ****                                     EEPROM_WriteByte(nombre_pro2[x],(x+112));
 1566              		.loc 1 496 0 is_stmt 0 discriminator 1
 1567 0412 344B     		ldr	r3, .L134+4
 1568 0414 1B78     		ldrb	r3, [r3]	@ zero_extendqisi2
 1569 0416 DBB2     		uxtb	r3, r3
 1570 0418 AB42     		cmp	r3, r5
 1571 041a F2D2     		bcs	.L123
 498:.\main.c      ****                                 }                        
 499:.\main.c      ****                                 USBUART_PutString("OK");
 1572              		.loc 1 499 0 is_stmt 1
 1573 041c 3248     		ldr	r0, .L134+8
 1574 041e FFF7FEFF 		bl	USBUART_PutString
 1575              	.LVL226:
 1576 0422 51E0     		b	.L67
 1577              	.LVL227:
 1578              	.L119:
 500:.\main.c      ****                             }else{
 501:.\main.c      ****                                 USBUART_PutString("ERROR");
 1579              		.loc 1 501 0
 1580 0424 3148     		ldr	r0, .L134+12
 1581 0426 FFF7FEFF 		bl	USBUART_PutString
 1582              	.LVL228:
 1583 042a 4DE0     		b	.L67
 1584              	.L84:
 502:.\main.c      ****                             }                        
 503:.\main.c      ****                         break; 
 504:.\main.c      ****                             
 505:.\main.c      ****                         case 'F':                             //Nombre Producto 3
 506:.\main.c      ****                             if(count <= 18){
 1585              		.loc 1 506 0
 1586 042c 122C     		cmp	r4, #18
 1587 042e 23D8     		bhi	.L124
 507:.\main.c      ****                                 nombre_pro3[0] = count - 3;
 1588              		.loc 1 507 0
 1589 0430 E21E     		subs	r2, r4, #3
 1590 0432 D2B2     		uxtb	r2, r2
 1591 0434 2F49     		ldr	r1, .L134+20
 1592 0436 0A70     		strb	r2, [r1]
 1593              	.LVL229:
 508:.\main.c      ****                                 for(x=2; x<(count-1); x++){
 1594              		.loc 1 508 0
ARM GAS  C:\Users\ASUS\AppData\Local\Temp\ccCANZGp.s 			page 39


 1595 0438 0222     		movs	r2, #2
 1596 043a 08E0     		b	.L125
 1597              	.LVL230:
 1598              	.L126:
 509:.\main.c      ****                                     nombre_pro3[x-1] = buffer[x];
 1599              		.loc 1 509 0 discriminator 3
 1600 043c 511E     		subs	r1, r2, #1
 1601 043e 10A8     		add	r0, sp, #64
 1602 0440 1044     		add	r0, r0, r2
 1603 0442 10F8405C 		ldrb	r5, [r0, #-64]	@ zero_extendqisi2
 1604 0446 2B48     		ldr	r0, .L134+20
 1605 0448 4554     		strb	r5, [r0, r1]
 508:.\main.c      ****                                 for(x=2; x<(count-1); x++){
 1606              		.loc 1 508 0 discriminator 3
 1607 044a 0132     		adds	r2, r2, #1
 1608              	.LVL231:
 1609 044c D2B2     		uxtb	r2, r2
 1610              	.LVL232:
 1611              	.L125:
 508:.\main.c      ****                                 for(x=2; x<(count-1); x++){
 1612              		.loc 1 508 0 is_stmt 0 discriminator 1
 1613 044e 9342     		cmp	r3, r2
 1614 0450 F4DC     		bgt	.L126
 1615 0452 0025     		movs	r5, #0
 1616 0454 07E0     		b	.L127
 1617              	.LVL233:
 1618              	.L128:
 510:.\main.c      ****                                 }
 511:.\main.c      ****                                 for(x=0; x<=nit[0]; x++){
 512:.\main.c      ****                                     EEPROM_WriteByte(nombre_pro3[x],(x+127));
 1619              		.loc 1 512 0 is_stmt 1 discriminator 3
 1620 0456 274B     		ldr	r3, .L134+20
 1621 0458 585D     		ldrb	r0, [r3, r5]	@ zero_extendqisi2
 1622 045a 05F17F01 		add	r1, r5, #127
 1623 045e FFF7FEFF 		bl	EEPROM_WriteByte
 1624              	.LVL234:
 511:.\main.c      ****                                     EEPROM_WriteByte(nombre_pro3[x],(x+127));
 1625              		.loc 1 511 0 discriminator 3
 1626 0462 0135     		adds	r5, r5, #1
 1627              	.LVL235:
 1628 0464 EDB2     		uxtb	r5, r5
 1629              	.LVL236:
 1630              	.L127:
 511:.\main.c      ****                                     EEPROM_WriteByte(nombre_pro3[x],(x+127));
 1631              		.loc 1 511 0 is_stmt 0 discriminator 1
 1632 0466 1F4B     		ldr	r3, .L134+4
 1633 0468 1B78     		ldrb	r3, [r3]	@ zero_extendqisi2
 1634 046a DBB2     		uxtb	r3, r3
 1635 046c AB42     		cmp	r3, r5
 1636 046e F2D2     		bcs	.L128
 513:.\main.c      ****                                 }                        
 514:.\main.c      ****                                 USBUART_PutString("OK");
 1637              		.loc 1 514 0 is_stmt 1
 1638 0470 1D48     		ldr	r0, .L134+8
 1639 0472 FFF7FEFF 		bl	USBUART_PutString
 1640              	.LVL237:
 1641 0476 27E0     		b	.L67
ARM GAS  C:\Users\ASUS\AppData\Local\Temp\ccCANZGp.s 			page 40


 1642              	.LVL238:
 1643              	.L124:
 515:.\main.c      ****                             }else{
 516:.\main.c      ****                                 USBUART_PutString("ERROR");
 1644              		.loc 1 516 0
 1645 0478 1C48     		ldr	r0, .L134+12
 1646 047a FFF7FEFF 		bl	USBUART_PutString
 1647              	.LVL239:
 1648 047e 23E0     		b	.L67
 1649              	.L85:
 517:.\main.c      ****                             }                        
 518:.\main.c      ****                         break;  
 519:.\main.c      ****                             
 520:.\main.c      ****                         case 'G':                            //Hora y Fecha
 521:.\main.c      ****                             if((buffer[2] <= 0x59) && (buffer[3] <= 0x23) && (buffer[4] <= 0x31) &&
 1650              		.loc 1 521 0
 1651 0480 9DF80250 		ldrb	r5, [sp, #2]	@ zero_extendqisi2
 1652 0484 592D     		cmp	r5, #89
 1653 0486 1CD8     		bhi	.L129
 1654              		.loc 1 521 0 is_stmt 0 discriminator 1
 1655 0488 9DF80300 		ldrb	r0, [sp, #3]	@ zero_extendqisi2
 1656 048c 2328     		cmp	r0, #35
 1657 048e 18D8     		bhi	.L129
 1658              		.loc 1 521 0 discriminator 2
 1659 0490 9DF80410 		ldrb	r1, [sp, #4]	@ zero_extendqisi2
 1660 0494 3129     		cmp	r1, #49
 1661 0496 14D8     		bhi	.L129
 1662              		.loc 1 521 0 discriminator 3
 1663 0498 9DF80520 		ldrb	r2, [sp, #5]	@ zero_extendqisi2
 1664 049c 122A     		cmp	r2, #18
 1665 049e 10D8     		bhi	.L129
 522:.\main.c      ****                                 hora[0] = buffer[2];
 1666              		.loc 1 522 0 is_stmt 1
 1667 04a0 154B     		ldr	r3, .L134+24
 1668 04a2 1D70     		strb	r5, [r3]
 523:.\main.c      ****                                 hora[1] = buffer[3];
 1669              		.loc 1 523 0
 1670 04a4 5870     		strb	r0, [r3, #1]
 524:.\main.c      ****                                 fecha[0] = buffer[4];
 1671              		.loc 1 524 0
 1672 04a6 154B     		ldr	r3, .L134+28
 1673 04a8 1970     		strb	r1, [r3]
 525:.\main.c      ****                                 fecha[1] = buffer[5];
 1674              		.loc 1 525 0
 1675 04aa 5A70     		strb	r2, [r3, #1]
 526:.\main.c      ****                                 fecha[2] = buffer[6];
 1676              		.loc 1 526 0
 1677 04ac 9DF80620 		ldrb	r2, [sp, #6]	@ zero_extendqisi2
 1678 04b0 9A70     		strb	r2, [r3, #2]
 527:.\main.c      ****                                 write_hora();
 1679              		.loc 1 527 0
 1680 04b2 FFF7FEFF 		bl	write_hora
 1681              	.LVL240:
 528:.\main.c      ****                                 write_fecha();
 1682              		.loc 1 528 0
 1683 04b6 FFF7FEFF 		bl	write_fecha
 1684              	.LVL241:
ARM GAS  C:\Users\ASUS\AppData\Local\Temp\ccCANZGp.s 			page 41


 529:.\main.c      ****                                 USBUART_PutString("OK");
 1685              		.loc 1 529 0
 1686 04ba 0B48     		ldr	r0, .L134+8
 1687 04bc FFF7FEFF 		bl	USBUART_PutString
 1688              	.LVL242:
 1689 04c0 02E0     		b	.L67
 1690              	.L129:
 530:.\main.c      ****                             }else{
 531:.\main.c      ****                                 USBUART_PutString("ERROR");
 1691              		.loc 1 531 0
 1692 04c2 0A48     		ldr	r0, .L134+12
 1693 04c4 FFF7FEFF 		bl	USBUART_PutString
 1694              	.LVL243:
 1695              	.L67:
 532:.\main.c      ****                             }                        
 533:.\main.c      ****                         break;                    
 534:.\main.c      ****                             
 535:.\main.c      ****                     }
 536:.\main.c      ****                 }
 537:.\main.c      ****                 if(count == BUFFER_LEN)
 1696              		.loc 1 537 0
 1697 04c8 402C     		cmp	r4, #64
 1698 04ca 07D1     		bne	.L63
 1699              	.L130:
 538:.\main.c      ****                 {
 539:.\main.c      ****                     while(USBUART_CDCIsReady() == 0u); 
 1700              		.loc 1 539 0 discriminator 1
 1701 04cc FFF7FEFF 		bl	USBUART_CDCIsReady
 1702              	.LVL244:
 1703 04d0 0028     		cmp	r0, #0
 1704 04d2 FBD0     		beq	.L130
 540:.\main.c      ****                     USBUART_PutData(NULL, 0u);         
 1705              		.loc 1 540 0
 1706 04d4 0020     		movs	r0, #0
 1707 04d6 0146     		mov	r1, r0
 1708 04d8 FFF7FEFF 		bl	USBUART_PutData
 1709              	.LVL245:
 1710              	.L63:
 541:.\main.c      ****                 }                
 542:.\main.c      ****             }    
 543:.\main.c      ****         }
 544:.\main.c      ****     }
 545:.\main.c      **** }
 1711              		.loc 1 545 0
 1712 04dc 11B0     		add	sp, sp, #68
 1713              		.cfi_def_cfa_offset 12
 1714              		@ sp needed
 1715 04de 30BD     		pop	{r4, r5, pc}
 1716              	.L135:
 1717              		.align	2
 1718              	.L134:
 1719 04e0 00000000 		.word	nombre_pro1
 1720 04e4 00000000 		.word	nit
 1721 04e8 80000000 		.word	.LC3
 1722 04ec 84000000 		.word	.LC4
 1723 04f0 00000000 		.word	nombre_pro2
 1724 04f4 00000000 		.word	nombre_pro3
ARM GAS  C:\Users\ASUS\AppData\Local\Temp\ccCANZGp.s 			page 42


 1725 04f8 00000000 		.word	hora
 1726 04fc 00000000 		.word	fecha
 1727              		.cfi_endproc
 1728              	.LFE67:
 1729              		.size	polling_usb, .-polling_usb
 1730              		.section	.text.main,"ax",%progbits
 1731              		.align	2
 1732              		.global	main
 1733              		.thumb
 1734              		.thumb_func
 1735              		.type	main, %function
 1736              	main:
 1737              	.LFB68:
 546:.\main.c      **** 
 547:.\main.c      **** 
 548:.\main.c      **** int main()
 549:.\main.c      **** {
 1738              		.loc 1 549 0
 1739              		.cfi_startproc
 1740              		@ args = 0, pretend = 0, frame = 0
 1741              		@ frame_needed = 0, uses_anonymous_args = 0
 1742 0000 38B5     		push	{r3, r4, r5, lr}
 1743              		.cfi_def_cfa_offset 16
 1744              		.cfi_offset 3, -16
 1745              		.cfi_offset 4, -12
 1746              		.cfi_offset 5, -8
 1747              		.cfi_offset 14, -4
 1748              	.LVL246:
 550:.\main.c      ****     uint8 estado1 = 0, estado2 = 0;                 //Estado de cada lado Bit0=espera, bit1=ocupado
 551:.\main.c      ****     init();
 1749              		.loc 1 551 0
 1750 0002 FFF7FEFF 		bl	init
 1751              	.LVL247:
 552:.\main.c      ****     init_surtidor();
 1752              		.loc 1 552 0
 1753 0006 FFF7FEFF 		bl	init_surtidor
 1754              	.LVL248:
 550:.\main.c      ****     uint8 estado1 = 0, estado2 = 0;                 //Estado de cada lado Bit0=espera, bit1=ocupado
 1755              		.loc 1 550 0
 1756 000a 0024     		movs	r4, #0
 1757 000c 2546     		mov	r5, r4
 1758              	.LVL249:
 1759              	.L137:
 553:.\main.c      ****     for(;;)
 554:.\main.c      ****     {
 555:.\main.c      ****         Led_Write(0);
 1760              		.loc 1 555 0 discriminator 1
 1761 000e 0020     		movs	r0, #0
 1762 0010 FFF7FEFF 		bl	Led_Write
 1763              	.LVL250:
 556:.\main.c      ****         estado1 = polling_surtidor(lado1.dir, estado1);
 1764              		.loc 1 556 0 discriminator 1
 1765 0014 0C4B     		ldr	r3, .L139
 1766 0016 1878     		ldrb	r0, [r3]	@ zero_extendqisi2
 1767 0018 2946     		mov	r1, r5
 1768 001a FFF7FEFF 		bl	polling_surtidor
 1769              	.LVL251:
ARM GAS  C:\Users\ASUS\AppData\Local\Temp\ccCANZGp.s 			page 43


 1770 001e 0146     		mov	r1, r0
 1771              	.LVL252:
 557:.\main.c      ****         estado1 = polling_boton(2,estado1);
 1772              		.loc 1 557 0 discriminator 1
 1773 0020 0220     		movs	r0, #2
 1774 0022 FFF7FEFF 		bl	polling_boton
 1775              	.LVL253:
 1776 0026 0546     		mov	r5, r0
 1777              	.LVL254:
 558:.\main.c      ****         Led_Write(1);
 1778              		.loc 1 558 0 discriminator 1
 1779 0028 0120     		movs	r0, #1
 1780 002a FFF7FEFF 		bl	Led_Write
 1781              	.LVL255:
 559:.\main.c      ****         estado2 = polling_surtidor(lado2.dir, estado2);
 1782              		.loc 1 559 0 discriminator 1
 1783 002e 074B     		ldr	r3, .L139+4
 1784 0030 1878     		ldrb	r0, [r3]	@ zero_extendqisi2
 1785 0032 2146     		mov	r1, r4
 1786 0034 FFF7FEFF 		bl	polling_surtidor
 1787              	.LVL256:
 1788 0038 0146     		mov	r1, r0
 1789              	.LVL257:
 560:.\main.c      ****         estado2 = polling_boton(1,estado2);
 1790              		.loc 1 560 0 discriminator 1
 1791 003a 0120     		movs	r0, #1
 1792 003c FFF7FEFF 		bl	polling_boton
 1793              	.LVL258:
 1794 0040 0446     		mov	r4, r0
 1795              	.LVL259:
 561:.\main.c      ****         polling_usb();       
 1796              		.loc 1 561 0 discriminator 1
 1797 0042 FFF7FEFF 		bl	polling_usb
 1798              	.LVL260:
 562:.\main.c      ****     }
 1799              		.loc 1 562 0 discriminator 1
 1800 0046 E2E7     		b	.L137
 1801              	.L140:
 1802              		.align	2
 1803              	.L139:
 1804 0048 00000000 		.word	lado1
 1805 004c 00000000 		.word	lado2
 1806              		.cfi_endproc
 1807              	.LFE68:
 1808              		.size	main, .-main
 1809              		.global	stop
 1810              		.global	parity
 1811              		.comm	print2,2,4
 1812              		.comm	print1,2,4
 1813              		.comm	rventa2,99,4
 1814              		.comm	rventa1,99,4
 1815              		.comm	hora,2,4
 1816              		.comm	fecha,3,4
 1817              		.comm	km,2,4
 1818              		.comm	id_logo,2,4
 1819              		.comm	lema2,32,4
 1820              		.comm	lema1,32,4
ARM GAS  C:\Users\ASUS\AppData\Local\Temp\ccCANZGp.s 			page 44


 1821              		.comm	direccion,33,4
 1822              		.comm	telefono,20,4
 1823              		.comm	nit,15,4
 1824              		.comm	nombre,33,4
 1825              		.comm	lado2,92,4
 1826              		.comm	lado1,92,4
 1827              		.comm	version,1,1
 1828              		.comm	nombre_pro3,17,4
 1829              		.comm	nombre_pro2,17,4
 1830              		.comm	nombre_pro1,17,4
 1831              		.comm	ppux10,1,1
 1832              		.data
 1833              		.align	2
 1834              		.type	stop, %object
 1835              		.size	stop, 12
 1836              	stop:
 1837 0000 8C000000 		.word	.LC5
 1838 0004 90000000 		.word	.LC6
 1839 0008 94000000 		.word	.LC7
 1840              		.type	parity, %object
 1841              		.size	parity, 20
 1842              	parity:
 1843 000c 98000000 		.word	.LC8
 1844 0010 A0000000 		.word	.LC9
 1845 0014 A4000000 		.word	.LC10
 1846 0018 AC000000 		.word	.LC11
 1847 001c B4000000 		.word	.LC12
 1848              		.section	.rodata.str1.4,"aMS",%progbits,1
 1849              		.align	2
 1850              	.LC0:
 1851 0000 0A0A4E6F 		.ascii	"\012\012No hay comunicacion con esta posicion.\012\012"
 1851      20686179 
 1851      20636F6D 
 1851      756E6963 
 1851      6163696F 
 1852 002a 0A0A0A0A 		.ascii	"\012\012\012\012\000"
 1852      00
 1853 002f 00       		.space	1
 1854              	.LC1:
 1855 0030 0A0A506F 		.ascii	"\012\012Posicion OK y no hay recibos para imprimir."
 1855      73696369 
 1855      6F6E204F 
 1855      4B207920 
 1855      6E6F2068 
 1856 005d 0A0A0A0A 		.ascii	"\012\012\012\012\012\012\000"
 1856      0A0A00
 1857              	.LC2:
 1858 0064 0A0A506F 		.ascii	"\012\012Posicion ocupada.\012\012\012\012\012\012\000"
 1858      73696369 
 1858      6F6E206F 
 1858      63757061 
 1858      64612E0A 
 1859 007e 0000     		.space	2
 1860              	.LC3:
 1861 0080 4F4B00   		.ascii	"OK\000"
 1862 0083 00       		.space	1
 1863              	.LC4:
ARM GAS  C:\Users\ASUS\AppData\Local\Temp\ccCANZGp.s 			page 45


 1864 0084 4552524F 		.ascii	"ERROR\000"
 1864      5200
 1865 008a 0000     		.space	2
 1866              	.LC5:
 1867 008c 3100     		.ascii	"1\000"
 1868 008e 0000     		.space	2
 1869              	.LC6:
 1870 0090 312E3500 		.ascii	"1.5\000"
 1871              	.LC7:
 1872 0094 3200     		.ascii	"2\000"
 1873 0096 0000     		.space	2
 1874              	.LC8:
 1875 0098 4E6F6E65 		.ascii	"None\000"
 1875      00
 1876 009d 000000   		.space	3
 1877              	.LC9:
 1878 00a0 4F646400 		.ascii	"Odd\000"
 1879              	.LC10:
 1880 00a4 4576656E 		.ascii	"Even\000"
 1880      00
 1881 00a9 000000   		.space	3
 1882              	.LC11:
 1883 00ac 4D61726B 		.ascii	"Mark\000"
 1883      00
 1884 00b1 000000   		.space	3
 1885              	.LC12:
 1886 00b4 53706163 		.ascii	"Space\000"
 1886      6500
 1887 00ba 0000     		.text
 1888              	.Letext0:
 1889              		.file 2 "c:\\program files (x86)\\cypress\\psoc creator\\3.3\\psoc creator\\import\\gnu\\arm\\4.9.
 1890              		.file 3 "c:\\program files (x86)\\cypress\\psoc creator\\3.3\\psoc creator\\import\\gnu\\arm\\4.9.
 1891              		.file 4 "Generated_Source\\PSoC5/cytypes.h"
 1892              		.file 5 ".\\VariablesG.h"
 1893              		.file 6 "Generated_Source\\PSoC5/core_cm3.h"
 1894              		.file 7 "Generated_Source\\PSoC5/I2C_1.h"
 1895              		.file 8 "Generated_Source\\PSoC5/Surtidor.h"
 1896              		.file 9 "Generated_Source\\PSoC5/RS232.h"
 1897              		.file 10 "Generated_Source\\PSoC5/EEPROM.h"
 1898              		.file 11 "Generated_Source\\PSoC5/USBUART.h"
 1899              		.file 12 "Generated_Source\\PSoC5/CyLib.h"
 1900              		.file 13 "Generated_Source\\PSoC5/Led.h"
 1901              		.file 14 ".\\Protocolo.h"
 1902              		.file 15 "Generated_Source\\PSoC5/Botones.h"
 1903              		.file 16 "Generated_Source\\PSoC5/Select0_RS232.h"
 1904              		.file 17 "Generated_Source\\PSoC5/Select1_RS232.h"
 1905              		.file 18 ".\\Print.h"
 1906              		.file 19 "Generated_Source\\PSoC5/USBUART_cdc.h"
 1907              		.file 20 ".\\i2c.h"