ARM GAS  C:\Users\ASUS\AppData\Local\Temp\ccBdy8zT.s 			page 1


   1              		.syntax unified
   2              		.cpu cortex-m3
   3              		.fpu softvfp
   4              		.eabi_attribute 20, 1
   5              		.eabi_attribute 21, 1
   6              		.eabi_attribute 23, 3
   7              		.eabi_attribute 24, 1
   8              		.eabi_attribute 25, 1
   9              		.eabi_attribute 26, 1
  10              		.eabi_attribute 30, 1
  11              		.eabi_attribute 34, 1
  12              		.eabi_attribute 18, 4
  13              		.thumb
  14              		.file	"Print.c"
  15              		.text
  16              	.Ltext0:
  17              		.cfi_sections	.debug_frame
  18              		.section	.text.imprimir,"ax",%progbits
  19              		.align	2
  20              		.global	imprimir
  21              		.thumb
  22              		.thumb_func
  23              		.type	imprimir, %function
  24              	imprimir:
  25              	.LFB63:
  26              		.file 1 ".\\Print.c"
   1:.\Print.c     **** /*
   2:.\Print.c     **** ***************************************************************************************************
   3:.\Print.c     **** *                                         FC_Impresion CODE
   4:.\Print.c     **** *
   5:.\Print.c     **** *                             (c) Copyright 2016; Distracom S.A
   6:.\Print.c     **** *
   7:.\Print.c     **** *               All rights reserved.  Protected by international copyright laws.
   8:.\Print.c     **** *               Knowledge of the source code may NOT be used to develop a similar product.
   9:.\Print.c     **** *               Please help us continue to provide the Embedded community with the finest
  10:.\Print.c     **** *               software available.  Your honesty is greatly appreciated.
  11:.\Print.c     **** ***************************************************************************************************
  12:.\Print.c     **** */
  13:.\Print.c     **** 
  14:.\Print.c     **** /*
  15:.\Print.c     **** ***************************************************************************************************
  16:.\Print.c     **** *
  17:.\Print.c     **** *                                            FC_Impresion CODE
  18:.\Print.c     **** *
  19:.\Print.c     **** *                                             CYPRESS PSoC5LP
  20:.\Print.c     **** *                                                with the
  21:.\Print.c     **** *                                            CY8C5888LTI-LP097
  22:.\Print.c     **** *
  23:.\Print.c     **** * Filename      : Print.h
  24:.\Print.c     **** * Version       : V1.00
  25:.\Print.c     **** * Programmer(s) : Leonardo Orjuela   
  26:.\Print.c     ****                   
  27:.\Print.c     **** ***************************************************************************************************
  28:.\Print.c     **** */
  29:.\Print.c     **** 
  30:.\Print.c     **** /*
  31:.\Print.c     **** ***************************************************************************************************
ARM GAS  C:\Users\ASUS\AppData\Local\Temp\ccBdy8zT.s 			page 2


  32:.\Print.c     **** *                                             INCLUDE FILES
  33:.\Print.c     **** ***************************************************************************************************
  34:.\Print.c     **** */
  35:.\Print.c     **** #include <project.h>
  36:.\Print.c     **** #include "VariablesG.h"
  37:.\Print.c     **** #include "i2c.h"
  38:.\Print.c     **** 
  39:.\Print.c     **** void imprimir(uint8 pos, uint8 prod, uint8 *ppu, uint8 *volumen, uint8 *dinero){
  27              		.loc 1 39 0
  28              		.cfi_startproc
  29              		@ args = 4, pretend = 0, frame = 0
  30              		@ frame_needed = 0, uses_anonymous_args = 0
  31              	.LVL0:
  32 0000 2DE9F843 		push	{r3, r4, r5, r6, r7, r8, r9, lr}
  33              		.cfi_def_cfa_offset 32
  34              		.cfi_offset 3, -32
  35              		.cfi_offset 4, -28
  36              		.cfi_offset 5, -24
  37              		.cfi_offset 6, -20
  38              		.cfi_offset 7, -16
  39              		.cfi_offset 8, -12
  40              		.cfi_offset 9, -8
  41              		.cfi_offset 14, -4
  42 0004 0746     		mov	r7, r0
  43 0006 8946     		mov	r9, r1
  44 0008 9046     		mov	r8, r2
  45 000a 1D46     		mov	r5, r3
  46 000c 089E     		ldr	r6, [sp, #32]
  40:.\Print.c     ****     uint8 x, digito;
  41:.\Print.c     ****     
  42:.\Print.c     **** 	RS232_PutString("      ESTACION DE SERVICIO\n");	
  47              		.loc 1 42 0
  48 000e A948     		ldr	r0, .L54
  49              	.LVL1:
  50 0010 FFF7FEFF 		bl	RS232_PutString
  51              	.LVL2:
  43:.\Print.c     ****     //RS232_PutString("        TEXACO CALIFORNIA\n");
  44:.\Print.c     **** 	for(x=0;x<=((31-nombre[0])/2);x++){						//NOMBRE
  52              		.loc 1 44 0
  53 0014 0024     		movs	r4, #0
  54 0016 04E0     		b	.L2
  55              	.LVL3:
  56              	.L3:
  45:.\Print.c     **** 		RS232_PutChar(0x20);
  57              		.loc 1 45 0 discriminator 3
  58 0018 2020     		movs	r0, #32
  59 001a FFF7FEFF 		bl	RS232_PutChar
  60              	.LVL4:
  44:.\Print.c     **** 		RS232_PutChar(0x20);
  61              		.loc 1 44 0 discriminator 3
  62 001e 0134     		adds	r4, r4, #1
  63              	.LVL5:
  64 0020 E4B2     		uxtb	r4, r4
  65              	.LVL6:
  66              	.L2:
  44:.\Print.c     **** 		RS232_PutChar(0x20);
  67              		.loc 1 44 0 is_stmt 0 discriminator 1
ARM GAS  C:\Users\ASUS\AppData\Local\Temp\ccBdy8zT.s 			page 3


  68 0022 A54B     		ldr	r3, .L54+4
  69 0024 1B78     		ldrb	r3, [r3]	@ zero_extendqisi2
  70 0026 C3F11F03 		rsb	r3, r3, #31
  71 002a 03EBD373 		add	r3, r3, r3, lsr #31
  72 002e B4EB630F 		cmp	r4, r3, asr #1
  73 0032 F1DD     		ble	.L3
  74 0034 0124     		movs	r4, #1
  75              	.LVL7:
  76 0036 05E0     		b	.L4
  77              	.LVL8:
  78              	.L5:
  46:.\Print.c     **** 	}
  47:.\Print.c     **** 	for(x=1;x<=nombre[0];x++){
  48:.\Print.c     **** 		RS232_PutChar(nombre[x]);			
  79              		.loc 1 48 0 is_stmt 1 discriminator 3
  80 0038 9F4B     		ldr	r3, .L54+4
  81 003a 185D     		ldrb	r0, [r3, r4]	@ zero_extendqisi2
  82 003c FFF7FEFF 		bl	RS232_PutChar
  83              	.LVL9:
  47:.\Print.c     **** 		RS232_PutChar(nombre[x]);			
  84              		.loc 1 47 0 discriminator 3
  85 0040 0134     		adds	r4, r4, #1
  86              	.LVL10:
  87 0042 E4B2     		uxtb	r4, r4
  88              	.LVL11:
  89              	.L4:
  47:.\Print.c     **** 		RS232_PutChar(nombre[x]);			
  90              		.loc 1 47 0 is_stmt 0 discriminator 1
  91 0044 9C4B     		ldr	r3, .L54+4
  92 0046 1B78     		ldrb	r3, [r3]	@ zero_extendqisi2
  93 0048 DBB2     		uxtb	r3, r3
  94 004a A342     		cmp	r3, r4
  95 004c F4D2     		bcs	.L5
  49:.\Print.c     **** 	}
  50:.\Print.c     ****     RS232_PutChar(10);
  96              		.loc 1 50 0 is_stmt 1
  97 004e 0A20     		movs	r0, #10
  98 0050 FFF7FEFF 		bl	RS232_PutChar
  99              	.LVL12:
  51:.\Print.c     **** 	if(nit[0]>=1){
 100              		.loc 1 51 0
 101 0054 994B     		ldr	r3, .L54+8
 102 0056 1B78     		ldrb	r3, [r3]	@ zero_extendqisi2
 103 0058 13F0FF0F 		tst	r3, #255
 104 005c 06D1     		bne	.L46
 105 005e 22E0     		b	.L7
 106              	.L8:
  52:.\Print.c     **** 		for(x=0;x<=((31-(nit[0]+4))/2);x++){				//NIT
  53:.\Print.c     **** 			RS232_PutChar(0x20);			
 107              		.loc 1 53 0 discriminator 3
 108 0060 2020     		movs	r0, #32
 109 0062 FFF7FEFF 		bl	RS232_PutChar
 110              	.LVL13:
  52:.\Print.c     **** 		for(x=0;x<=((31-(nit[0]+4))/2);x++){				//NIT
 111              		.loc 1 52 0 discriminator 3
 112 0066 0134     		adds	r4, r4, #1
 113              	.LVL14:
ARM GAS  C:\Users\ASUS\AppData\Local\Temp\ccBdy8zT.s 			page 4


 114 0068 E4B2     		uxtb	r4, r4
 115              	.LVL15:
 116 006a 00E0     		b	.L6
 117              	.L46:
 118 006c 0024     		movs	r4, #0
 119              	.LVL16:
 120              	.L6:
  52:.\Print.c     **** 		for(x=0;x<=((31-(nit[0]+4))/2);x++){				//NIT
 121              		.loc 1 52 0 is_stmt 0 discriminator 1
 122 006e 934B     		ldr	r3, .L54+8
 123 0070 1B78     		ldrb	r3, [r3]	@ zero_extendqisi2
 124 0072 C3F11B03 		rsb	r3, r3, #27
 125 0076 03EBD373 		add	r3, r3, r3, lsr #31
 126 007a B4EB630F 		cmp	r4, r3, asr #1
 127 007e EFDD     		ble	.L8
  54:.\Print.c     **** 		}											
  55:.\Print.c     **** 		RS232_PutString("NIT ");
 128              		.loc 1 55 0 is_stmt 1
 129 0080 8F48     		ldr	r0, .L54+12
 130 0082 FFF7FEFF 		bl	RS232_PutString
 131              	.LVL17:
  56:.\Print.c     **** 		for(x=1;x<=nit[0];x++){
 132              		.loc 1 56 0
 133 0086 0124     		movs	r4, #1
 134 0088 05E0     		b	.L9
 135              	.LVL18:
 136              	.L10:
  57:.\Print.c     **** 			RS232_PutChar(nit[x]);			
 137              		.loc 1 57 0 discriminator 3
 138 008a 8C4B     		ldr	r3, .L54+8
 139 008c 185D     		ldrb	r0, [r3, r4]	@ zero_extendqisi2
 140 008e FFF7FEFF 		bl	RS232_PutChar
 141              	.LVL19:
  56:.\Print.c     **** 		for(x=1;x<=nit[0];x++){
 142              		.loc 1 56 0 discriminator 3
 143 0092 0134     		adds	r4, r4, #1
 144              	.LVL20:
 145 0094 E4B2     		uxtb	r4, r4
 146              	.LVL21:
 147              	.L9:
  56:.\Print.c     **** 		for(x=1;x<=nit[0];x++){
 148              		.loc 1 56 0 is_stmt 0 discriminator 1
 149 0096 894B     		ldr	r3, .L54+8
 150 0098 1B78     		ldrb	r3, [r3]	@ zero_extendqisi2
 151 009a DBB2     		uxtb	r3, r3
 152 009c A342     		cmp	r3, r4
 153 009e F4D2     		bcs	.L10
  58:.\Print.c     **** 		}
  59:.\Print.c     **** 		RS232_PutChar(10);
 154              		.loc 1 59 0 is_stmt 1
 155 00a0 0A20     		movs	r0, #10
 156 00a2 FFF7FEFF 		bl	RS232_PutChar
 157              	.LVL22:
 158              	.L7:
  60:.\Print.c     **** 	}
  61:.\Print.c     **** 	if(telefono[0]>=1){
 159              		.loc 1 61 0
ARM GAS  C:\Users\ASUS\AppData\Local\Temp\ccBdy8zT.s 			page 5


 160 00a6 874B     		ldr	r3, .L54+16
 161 00a8 1B78     		ldrb	r3, [r3]	@ zero_extendqisi2
 162 00aa 13F0FF0F 		tst	r3, #255
 163 00ae 06D1     		bne	.L47
 164 00b0 25E0     		b	.L12
 165              	.L13:
  62:.\Print.c     **** 		for(x=0;x<=((31-(telefono[0]+4))/2);x++){	        //TELEFONO
  63:.\Print.c     **** 			RS232_PutChar(0x20);			
 166              		.loc 1 63 0 discriminator 3
 167 00b2 2020     		movs	r0, #32
 168 00b4 FFF7FEFF 		bl	RS232_PutChar
 169              	.LVL23:
  62:.\Print.c     **** 		for(x=0;x<=((31-(telefono[0]+4))/2);x++){	        //TELEFONO
 170              		.loc 1 62 0 discriminator 3
 171 00b8 0134     		adds	r4, r4, #1
 172              	.LVL24:
 173 00ba E4B2     		uxtb	r4, r4
 174              	.LVL25:
 175 00bc 00E0     		b	.L11
 176              	.L47:
 177 00be 0024     		movs	r4, #0
 178              	.LVL26:
 179              	.L11:
  62:.\Print.c     **** 		for(x=0;x<=((31-(telefono[0]+4))/2);x++){	        //TELEFONO
 180              		.loc 1 62 0 is_stmt 0 discriminator 1
 181 00c0 804B     		ldr	r3, .L54+16
 182 00c2 1B78     		ldrb	r3, [r3]	@ zero_extendqisi2
 183 00c4 C3F11B03 		rsb	r3, r3, #27
 184 00c8 03EBD373 		add	r3, r3, r3, lsr #31
 185 00cc B4EB630F 		cmp	r4, r3, asr #1
 186 00d0 EFDD     		ble	.L13
  64:.\Print.c     **** 		}											
  65:.\Print.c     **** 		RS232_PutString("TEL:");
 187              		.loc 1 65 0 is_stmt 1
 188 00d2 7D48     		ldr	r0, .L54+20
 189 00d4 FFF7FEFF 		bl	RS232_PutString
 190              	.LVL27:
  66:.\Print.c     **** 		for(x=1;x<=telefono[0];x++){
 191              		.loc 1 66 0
 192 00d8 0124     		movs	r4, #1
 193 00da 05E0     		b	.L14
 194              	.LVL28:
 195              	.L15:
  67:.\Print.c     **** 			RS232_PutChar(telefono[x]);			
 196              		.loc 1 67 0 discriminator 3
 197 00dc 794B     		ldr	r3, .L54+16
 198 00de 185D     		ldrb	r0, [r3, r4]	@ zero_extendqisi2
 199 00e0 FFF7FEFF 		bl	RS232_PutChar
 200              	.LVL29:
  66:.\Print.c     **** 		for(x=1;x<=telefono[0];x++){
 201              		.loc 1 66 0 discriminator 3
 202 00e4 0134     		adds	r4, r4, #1
 203              	.LVL30:
 204 00e6 E4B2     		uxtb	r4, r4
 205              	.LVL31:
 206              	.L14:
  66:.\Print.c     **** 		for(x=1;x<=telefono[0];x++){
ARM GAS  C:\Users\ASUS\AppData\Local\Temp\ccBdy8zT.s 			page 6


 207              		.loc 1 66 0 is_stmt 0 discriminator 1
 208 00e8 764B     		ldr	r3, .L54+16
 209 00ea 1B78     		ldrb	r3, [r3]	@ zero_extendqisi2
 210 00ec DBB2     		uxtb	r3, r3
 211 00ee A342     		cmp	r3, r4
 212 00f0 F4D2     		bcs	.L15
  68:.\Print.c     **** 		}			
  69:.\Print.c     **** 	    RS232_PutChar(10);
 213              		.loc 1 69 0 is_stmt 1
 214 00f2 0A20     		movs	r0, #10
 215 00f4 FFF7FEFF 		bl	RS232_PutChar
 216              	.LVL32:
  70:.\Print.c     **** 	    RS232_PutChar(10);
 217              		.loc 1 70 0
 218 00f8 0A20     		movs	r0, #10
 219 00fa FFF7FEFF 		bl	RS232_PutChar
 220              	.LVL33:
 221              	.L12:
  66:.\Print.c     **** 			RS232_PutChar(telefono[x]);			
 222              		.loc 1 66 0 discriminator 1
 223 00fe 0024     		movs	r4, #0
 224              	.LVL34:
 225 0100 04E0     		b	.L16
 226              	.LVL35:
 227              	.L17:
  71:.\Print.c     **** 	}
  72:.\Print.c     **** 	for(x=0;x<=((31-direccion[0])/2);x++){			        //DIRECCION
  73:.\Print.c     **** 		RS232_PutChar(0x20);			
 228              		.loc 1 73 0 discriminator 3
 229 0102 2020     		movs	r0, #32
 230 0104 FFF7FEFF 		bl	RS232_PutChar
 231              	.LVL36:
  72:.\Print.c     **** 		RS232_PutChar(0x20);			
 232              		.loc 1 72 0 discriminator 3
 233 0108 0134     		adds	r4, r4, #1
 234              	.LVL37:
 235 010a E4B2     		uxtb	r4, r4
 236              	.LVL38:
 237              	.L16:
  72:.\Print.c     **** 		RS232_PutChar(0x20);			
 238              		.loc 1 72 0 is_stmt 0 discriminator 1
 239 010c 6F4B     		ldr	r3, .L54+24
 240 010e 1B78     		ldrb	r3, [r3]	@ zero_extendqisi2
 241 0110 C3F11F03 		rsb	r3, r3, #31
 242 0114 03EBD373 		add	r3, r3, r3, lsr #31
 243 0118 B4EB630F 		cmp	r4, r3, asr #1
 244 011c F1DD     		ble	.L17
 245 011e 0124     		movs	r4, #1
 246              	.LVL39:
 247 0120 05E0     		b	.L18
 248              	.LVL40:
 249              	.L19:
  74:.\Print.c     **** 	}
  75:.\Print.c     **** 	for(x=1;x<=direccion[0];x++){
  76:.\Print.c     **** 		RS232_PutChar(direccion[x]);			
 250              		.loc 1 76 0 is_stmt 1 discriminator 3
 251 0122 6A4B     		ldr	r3, .L54+24
ARM GAS  C:\Users\ASUS\AppData\Local\Temp\ccBdy8zT.s 			page 7


 252 0124 185D     		ldrb	r0, [r3, r4]	@ zero_extendqisi2
 253 0126 FFF7FEFF 		bl	RS232_PutChar
 254              	.LVL41:
  75:.\Print.c     **** 		RS232_PutChar(direccion[x]);			
 255              		.loc 1 75 0 discriminator 3
 256 012a 0134     		adds	r4, r4, #1
 257              	.LVL42:
 258 012c E4B2     		uxtb	r4, r4
 259              	.LVL43:
 260              	.L18:
  75:.\Print.c     **** 		RS232_PutChar(direccion[x]);			
 261              		.loc 1 75 0 is_stmt 0 discriminator 1
 262 012e 674B     		ldr	r3, .L54+24
 263 0130 1B78     		ldrb	r3, [r3]	@ zero_extendqisi2
 264 0132 DBB2     		uxtb	r3, r3
 265 0134 A342     		cmp	r3, r4
 266 0136 F4D2     		bcs	.L19
  77:.\Print.c     **** 	}
  78:.\Print.c     ****     RS232_PutChar(10);
 267              		.loc 1 78 0 is_stmt 1
 268 0138 0A20     		movs	r0, #10
 269 013a FFF7FEFF 		bl	RS232_PutChar
 270              	.LVL44:
  79:.\Print.c     ****     RS232_PutChar(10);
 271              		.loc 1 79 0
 272 013e 0A20     		movs	r0, #10
 273 0140 FFF7FEFF 		bl	RS232_PutChar
 274              	.LVL45:
  80:.\Print.c     ****     RS232_PutChar(10);    																	
 275              		.loc 1 80 0
 276 0144 0A20     		movs	r0, #10
 277 0146 FFF7FEFF 		bl	RS232_PutChar
 278              	.LVL46:
  81:.\Print.c     **** 	RS232_PutString("FECHA: ");                             //FECHA	
 279              		.loc 1 81 0
 280 014a 6148     		ldr	r0, .L54+28
 281 014c FFF7FEFF 		bl	RS232_PutString
 282              	.LVL47:
  82:.\Print.c     **** 	if(leer_fecha()==1){
 283              		.loc 1 82 0
 284 0150 FFF7FEFF 		bl	leer_fecha
 285              	.LVL48:
 286 0154 0128     		cmp	r0, #1
 287 0156 2AD1     		bne	.L20
  83:.\Print.c     **** 		RS232_PutChar(((fecha[0]&0x30)>>4)+48);
 288              		.loc 1 83 0
 289 0158 5E4C     		ldr	r4, .L54+32
 290              	.LVL49:
 291 015a 2078     		ldrb	r0, [r4]	@ zero_extendqisi2
 292 015c C0F30110 		ubfx	r0, r0, #4, #2
 293 0160 3030     		adds	r0, r0, #48
 294 0162 FFF7FEFF 		bl	RS232_PutChar
 295              	.LVL50:
  84:.\Print.c     **** 		RS232_PutChar((fecha[0]&0x0F)+48);
 296              		.loc 1 84 0
 297 0166 2078     		ldrb	r0, [r4]	@ zero_extendqisi2
 298 0168 00F00F00 		and	r0, r0, #15
ARM GAS  C:\Users\ASUS\AppData\Local\Temp\ccBdy8zT.s 			page 8


 299 016c 3030     		adds	r0, r0, #48
 300 016e FFF7FEFF 		bl	RS232_PutChar
 301              	.LVL51:
  85:.\Print.c     **** 		RS232_PutChar('/');
 302              		.loc 1 85 0
 303 0172 2F20     		movs	r0, #47
 304 0174 FFF7FEFF 		bl	RS232_PutChar
 305              	.LVL52:
  86:.\Print.c     **** 		RS232_PutChar(((fecha[1]&0x10)>>4)+48);
 306              		.loc 1 86 0
 307 0178 6078     		ldrb	r0, [r4, #1]	@ zero_extendqisi2
 308 017a C0F30010 		ubfx	r0, r0, #4, #1
 309 017e 3030     		adds	r0, r0, #48
 310 0180 C0B2     		uxtb	r0, r0
 311 0182 FFF7FEFF 		bl	RS232_PutChar
 312              	.LVL53:
  87:.\Print.c     **** 		RS232_PutChar((fecha[1]&0x0F)+48);	
 313              		.loc 1 87 0
 314 0186 6078     		ldrb	r0, [r4, #1]	@ zero_extendqisi2
 315 0188 00F00F00 		and	r0, r0, #15
 316 018c 3030     		adds	r0, r0, #48
 317 018e FFF7FEFF 		bl	RS232_PutChar
 318              	.LVL54:
  88:.\Print.c     **** 		RS232_PutChar('/');
 319              		.loc 1 88 0
 320 0192 2F20     		movs	r0, #47
 321 0194 FFF7FEFF 		bl	RS232_PutChar
 322              	.LVL55:
  89:.\Print.c     **** 		RS232_PutChar(((fecha[2]&0xF0)>>4)+48);
 323              		.loc 1 89 0
 324 0198 A078     		ldrb	r0, [r4, #2]	@ zero_extendqisi2
 325 019a 0009     		lsrs	r0, r0, #4
 326 019c 3030     		adds	r0, r0, #48
 327 019e FFF7FEFF 		bl	RS232_PutChar
 328              	.LVL56:
  90:.\Print.c     **** 		RS232_PutChar((fecha[2]&0x0F)+48);			
 329              		.loc 1 90 0
 330 01a2 A078     		ldrb	r0, [r4, #2]	@ zero_extendqisi2
 331 01a4 00F00F00 		and	r0, r0, #15
 332 01a8 3030     		adds	r0, r0, #48
 333 01aa FFF7FEFF 		bl	RS232_PutChar
 334              	.LVL57:
 335              	.L20:
  91:.\Print.c     **** 	}
  92:.\Print.c     ****     RS232_PutChar(10);	                                							
 336              		.loc 1 92 0
 337 01ae 0A20     		movs	r0, #10
 338 01b0 FFF7FEFF 		bl	RS232_PutChar
 339              	.LVL58:
  93:.\Print.c     **** 	RS232_PutString("HORA:  ");                             //HORA
 340              		.loc 1 93 0
 341 01b4 4848     		ldr	r0, .L54+36
 342 01b6 FFF7FEFF 		bl	RS232_PutString
 343              	.LVL59:
  94:.\Print.c     **** 	if(leer_hora()==1){										
 344              		.loc 1 94 0
 345 01ba FFF7FEFF 		bl	leer_hora
ARM GAS  C:\Users\ASUS\AppData\Local\Temp\ccBdy8zT.s 			page 9


 346              	.LVL60:
 347 01be 0128     		cmp	r0, #1
 348 01c0 1AD1     		bne	.L21
  95:.\Print.c     **** 		RS232_PutChar(((hora[1]&0x30)>>4)+48);
 349              		.loc 1 95 0
 350 01c2 464C     		ldr	r4, .L54+40
 351 01c4 6078     		ldrb	r0, [r4, #1]	@ zero_extendqisi2
 352 01c6 C0F30110 		ubfx	r0, r0, #4, #2
 353 01ca 3030     		adds	r0, r0, #48
 354 01cc FFF7FEFF 		bl	RS232_PutChar
 355              	.LVL61:
  96:.\Print.c     **** 		RS232_PutChar((hora[1]&0x0F)+48);
 356              		.loc 1 96 0
 357 01d0 6078     		ldrb	r0, [r4, #1]	@ zero_extendqisi2
 358 01d2 00F00F00 		and	r0, r0, #15
 359 01d6 3030     		adds	r0, r0, #48
 360 01d8 FFF7FEFF 		bl	RS232_PutChar
 361              	.LVL62:
  97:.\Print.c     **** 		RS232_PutChar(':');
 362              		.loc 1 97 0
 363 01dc 3A20     		movs	r0, #58
 364 01de FFF7FEFF 		bl	RS232_PutChar
 365              	.LVL63:
  98:.\Print.c     **** 		RS232_PutChar(((hora[0]&0xF0)>>4)+48);
 366              		.loc 1 98 0
 367 01e2 2078     		ldrb	r0, [r4]	@ zero_extendqisi2
 368 01e4 0009     		lsrs	r0, r0, #4
 369 01e6 3030     		adds	r0, r0, #48
 370 01e8 FFF7FEFF 		bl	RS232_PutChar
 371              	.LVL64:
  99:.\Print.c     **** 		RS232_PutChar((hora[0]&0x0F)+48);
 372              		.loc 1 99 0
 373 01ec 2078     		ldrb	r0, [r4]	@ zero_extendqisi2
 374 01ee 00F00F00 		and	r0, r0, #15
 375 01f2 3030     		adds	r0, r0, #48
 376 01f4 FFF7FEFF 		bl	RS232_PutChar
 377              	.LVL65:
 378              	.L21:
 100:.\Print.c     **** 	}
 101:.\Print.c     ****     RS232_PutChar(10);
 379              		.loc 1 101 0
 380 01f8 0A20     		movs	r0, #10
 381 01fa FFF7FEFF 		bl	RS232_PutChar
 382              	.LVL66:
 102:.\Print.c     ****     RS232_PutChar(10);																	
 383              		.loc 1 102 0
 384 01fe 0A20     		movs	r0, #10
 385 0200 FFF7FEFF 		bl	RS232_PutChar
 386              	.LVL67:
 103:.\Print.c     ****     RS232_PutString("POSICION:  ");                         //POSICION
 387              		.loc 1 103 0
 388 0204 3648     		ldr	r0, .L54+44
 389 0206 FFF7FEFF 		bl	RS232_PutString
 390              	.LVL68:
 104:.\Print.c     ****     RS232_PutChar((pos/10)+48);
 391              		.loc 1 104 0
 392 020a 364C     		ldr	r4, .L54+48
ARM GAS  C:\Users\ASUS\AppData\Local\Temp\ccBdy8zT.s 			page 10


 393 020c A4FB0734 		umull	r3, r4, r4, r7
 394 0210 E408     		lsrs	r4, r4, #3
 395 0212 04F13000 		add	r0, r4, #48
 396 0216 FFF7FEFF 		bl	RS232_PutChar
 397              	.LVL69:
 105:.\Print.c     **** 	RS232_PutChar((pos%10)+48);
 398              		.loc 1 105 0
 399 021a 04EB8404 		add	r4, r4, r4, lsl #2
 400 021e 6400     		lsls	r4, r4, #1
 401 0220 3C1B     		subs	r4, r7, r4
 402 0222 04F13000 		add	r0, r4, #48
 403 0226 C0B2     		uxtb	r0, r0
 404 0228 FFF7FEFF 		bl	RS232_PutChar
 405              	.LVL70:
 106:.\Print.c     ****     RS232_PutChar(10);    																		
 406              		.loc 1 106 0
 407 022c 0A20     		movs	r0, #10
 408 022e FFF7FEFF 		bl	RS232_PutChar
 409              	.LVL71:
 107:.\Print.c     **** 	RS232_PutString("PRODUCTO:  ");                         //PRODUCTO 
 410              		.loc 1 107 0
 411 0232 2D48     		ldr	r0, .L54+52
 412 0234 FFF7FEFF 		bl	RS232_PutString
 413              	.LVL72:
 108:.\Print.c     ****     if(prod=='1'){
 414              		.loc 1 108 0
 415 0238 B9F1310F 		cmp	r9, #49
 416 023c 0ED1     		bne	.L51
 417 023e 06E0     		b	.L48
 418              	.LVL73:
 419              	.L24:
 109:.\Print.c     **** 		for(x=1;x<=nombre_pro1[0];x++){
 110:.\Print.c     **** 			RS232_PutChar(nombre_pro1[x]);			
 420              		.loc 1 110 0 discriminator 3
 421 0240 2A4B     		ldr	r3, .L54+56
 422 0242 185D     		ldrb	r0, [r3, r4]	@ zero_extendqisi2
 423 0244 FFF7FEFF 		bl	RS232_PutChar
 424              	.LVL74:
 109:.\Print.c     **** 		for(x=1;x<=nombre_pro1[0];x++){
 425              		.loc 1 109 0 discriminator 3
 426 0248 0134     		adds	r4, r4, #1
 427              	.LVL75:
 428 024a E4B2     		uxtb	r4, r4
 429              	.LVL76:
 430 024c 00E0     		b	.L22
 431              	.LVL77:
 432              	.L48:
 433 024e 0124     		movs	r4, #1
 434              	.L22:
 435              	.LVL78:
 109:.\Print.c     **** 		for(x=1;x<=nombre_pro1[0];x++){
 436              		.loc 1 109 0 is_stmt 0 discriminator 1
 437 0250 264B     		ldr	r3, .L54+56
 438 0252 1B78     		ldrb	r3, [r3]	@ zero_extendqisi2
 439 0254 DBB2     		uxtb	r3, r3
 440 0256 A342     		cmp	r3, r4
 441 0258 F2D2     		bcs	.L24
ARM GAS  C:\Users\ASUS\AppData\Local\Temp\ccBdy8zT.s 			page 11


 442 025a 22E0     		b	.L25
 443              	.LVL79:
 444              	.L51:
 111:.\Print.c     **** 		}		
 112:.\Print.c     **** 	}
 113:.\Print.c     **** 	else if(prod=='2'){
 445              		.loc 1 113 0 is_stmt 1
 446 025c B9F1320F 		cmp	r9, #50
 447 0260 0ED1     		bne	.L52
 448 0262 06E0     		b	.L49
 449              	.LVL80:
 450              	.L28:
 114:.\Print.c     **** 		for(x=1;x<=nombre_pro2[0];x++){
 115:.\Print.c     **** 			RS232_PutChar(nombre_pro2[x]);			
 451              		.loc 1 115 0 discriminator 3
 452 0264 224B     		ldr	r3, .L54+60
 453 0266 185D     		ldrb	r0, [r3, r4]	@ zero_extendqisi2
 454 0268 FFF7FEFF 		bl	RS232_PutChar
 455              	.LVL81:
 114:.\Print.c     **** 		for(x=1;x<=nombre_pro2[0];x++){
 456              		.loc 1 114 0 discriminator 3
 457 026c 0134     		adds	r4, r4, #1
 458              	.LVL82:
 459 026e E4B2     		uxtb	r4, r4
 460              	.LVL83:
 461 0270 00E0     		b	.L26
 462              	.LVL84:
 463              	.L49:
 464 0272 0124     		movs	r4, #1
 465              	.L26:
 466              	.LVL85:
 114:.\Print.c     **** 		for(x=1;x<=nombre_pro2[0];x++){
 467              		.loc 1 114 0 is_stmt 0 discriminator 1
 468 0274 1E4B     		ldr	r3, .L54+60
 469 0276 1B78     		ldrb	r3, [r3]	@ zero_extendqisi2
 470 0278 DBB2     		uxtb	r3, r3
 471 027a A342     		cmp	r3, r4
 472 027c F2D2     		bcs	.L28
 473 027e 10E0     		b	.L25
 474              	.LVL86:
 475              	.L52:
 116:.\Print.c     **** 		}	
 117:.\Print.c     **** 	}
 118:.\Print.c     **** 	else if(prod=='3'){
 476              		.loc 1 118 0 is_stmt 1
 477 0280 B9F1330F 		cmp	r9, #51
 478 0284 0DD1     		bne	.L25
 479 0286 06E0     		b	.L50
 480              	.LVL87:
 481              	.L30:
 119:.\Print.c     **** 		for(x=1;x<=nombre_pro3[0];x++){
 120:.\Print.c     **** 			RS232_PutChar(nombre_pro3[x]);			
 482              		.loc 1 120 0 discriminator 3
 483 0288 1A4B     		ldr	r3, .L54+64
 484 028a 185D     		ldrb	r0, [r3, r4]	@ zero_extendqisi2
 485 028c FFF7FEFF 		bl	RS232_PutChar
 486              	.LVL88:
ARM GAS  C:\Users\ASUS\AppData\Local\Temp\ccBdy8zT.s 			page 12


 119:.\Print.c     **** 		for(x=1;x<=nombre_pro3[0];x++){
 487              		.loc 1 119 0 discriminator 3
 488 0290 0134     		adds	r4, r4, #1
 489              	.LVL89:
 490 0292 E4B2     		uxtb	r4, r4
 491              	.LVL90:
 492 0294 00E0     		b	.L29
 493              	.LVL91:
 494              	.L50:
 495 0296 0124     		movs	r4, #1
 496              	.L29:
 497              	.LVL92:
 119:.\Print.c     **** 		for(x=1;x<=nombre_pro3[0];x++){
 498              		.loc 1 119 0 is_stmt 0 discriminator 1
 499 0298 164B     		ldr	r3, .L54+64
 500 029a 1B78     		ldrb	r3, [r3]	@ zero_extendqisi2
 501 029c DBB2     		uxtb	r3, r3
 502 029e A342     		cmp	r3, r4
 503 02a0 F2D2     		bcs	.L30
 504              	.LVL93:
 505              	.L25:
 121:.\Print.c     **** 		}	
 122:.\Print.c     **** 	}	
 123:.\Print.c     **** 	RS232_PutChar(10);																		
 506              		.loc 1 123 0 is_stmt 1
 507 02a2 0A20     		movs	r0, #10
 508 02a4 FFF7FEFF 		bl	RS232_PutChar
 509              	.LVL94:
 124:.\Print.c     **** 	RS232_PutString("PPU:       $/G ");                      //PPU
 510              		.loc 1 124 0
 511 02a8 1348     		ldr	r0, .L54+68
 512 02aa FFF7FEFF 		bl	RS232_PutString
 513              	.LVL95:
 125:.\Print.c     **** 	digito=0;
 514              		.loc 1 125 0
 515 02ae 0023     		movs	r3, #0
 126:.\Print.c     **** 	for(x=4;x>=1;x--){
 516              		.loc 1 126 0
 517 02b0 0424     		movs	r4, #4
 518 02b2 2EE0     		b	.L31
 519              	.L55:
 520              		.align	2
 521              	.L54:
 522 02b4 00000000 		.word	.LC0
 523 02b8 00000000 		.word	nombre
 524 02bc 00000000 		.word	nit
 525 02c0 1C000000 		.word	.LC1
 526 02c4 00000000 		.word	telefono
 527 02c8 24000000 		.word	.LC2
 528 02cc 00000000 		.word	direccion
 529 02d0 2C000000 		.word	.LC3
 530 02d4 00000000 		.word	fecha
 531 02d8 34000000 		.word	.LC4
 532 02dc 00000000 		.word	hora
 533 02e0 3C000000 		.word	.LC5
 534 02e4 CDCCCCCC 		.word	-858993459
 535 02e8 48000000 		.word	.LC6
ARM GAS  C:\Users\ASUS\AppData\Local\Temp\ccBdy8zT.s 			page 13


 536 02ec 00000000 		.word	nombre_pro1
 537 02f0 00000000 		.word	nombre_pro2
 538 02f4 00000000 		.word	nombre_pro3
 539 02f8 54000000 		.word	.LC7
 540              	.LVL96:
 541              	.L34:
 127:.\Print.c     ****         if((ppu[x]==0)&&(digito==0)){
 542              		.loc 1 127 0
 543 02fc 18F80400 		ldrb	r0, [r8, r4]	@ zero_extendqisi2
 544 0300 00B9     		cbnz	r0, .L32
 545              		.loc 1 127 0 is_stmt 0 discriminator 1
 546 0302 23B1     		cbz	r3, .L33
 547              	.L32:
 548              	.LVL97:
 128:.\Print.c     ****             
 129:.\Print.c     ****         }
 130:.\Print.c     ****         else{			
 131:.\Print.c     ****             digito=1;
 132:.\Print.c     ****             RS232_PutChar(ppu[x]+48);
 549              		.loc 1 132 0 is_stmt 1
 550 0304 3030     		adds	r0, r0, #48
 551 0306 C0B2     		uxtb	r0, r0
 552 0308 FFF7FEFF 		bl	RS232_PutChar
 553              	.LVL98:
 131:.\Print.c     ****             RS232_PutChar(ppu[x]+48);
 554              		.loc 1 131 0
 555 030c 0123     		movs	r3, #1
 556              	.LVL99:
 557              	.L33:
 126:.\Print.c     ****         if((ppu[x]==0)&&(digito==0)){
 558              		.loc 1 126 0 discriminator 2
 559 030e 013C     		subs	r4, r4, #1
 560              	.LVL100:
 561 0310 E4B2     		uxtb	r4, r4
 562              	.LVL101:
 563              	.L31:
 126:.\Print.c     ****         if((ppu[x]==0)&&(digito==0)){
 564              		.loc 1 126 0 is_stmt 0 discriminator 1
 565 0312 002C     		cmp	r4, #0
 566 0314 F2D1     		bne	.L34
 133:.\Print.c     ****         }	
 134:.\Print.c     **** 	}
 135:.\Print.c     **** 	RS232_PutChar(ppu[0]+48);
 567              		.loc 1 135 0 is_stmt 1
 568 0316 98F80000 		ldrb	r0, [r8]	@ zero_extendqisi2
 569 031a 3030     		adds	r0, r0, #48
 570 031c C0B2     		uxtb	r0, r0
 571 031e FFF7FEFF 		bl	RS232_PutChar
 572              	.LVL102:
 136:.\Print.c     **** 	if(ppux10=='1'){
 573              		.loc 1 136 0
 574 0322 3D4B     		ldr	r3, .L56
 575 0324 1B78     		ldrb	r3, [r3]	@ zero_extendqisi2
 576 0326 DBB2     		uxtb	r3, r3
 577 0328 312B     		cmp	r3, #49
 578 032a 02D1     		bne	.L35
 137:.\Print.c     **** 		RS232_PutChar(48);	
ARM GAS  C:\Users\ASUS\AppData\Local\Temp\ccBdy8zT.s 			page 14


 579              		.loc 1 137 0
 580 032c 3020     		movs	r0, #48
 581 032e FFF7FEFF 		bl	RS232_PutChar
 582              	.LVL103:
 583              	.L35:
 138:.\Print.c     **** 	}
 139:.\Print.c     **** 	RS232_PutChar(10);    																		
 584              		.loc 1 139 0
 585 0332 0A20     		movs	r0, #10
 586 0334 FFF7FEFF 		bl	RS232_PutChar
 587              	.LVL104:
 140:.\Print.c     **** 	RS232_PutString("VOLUMEN:   G ");                      //VOLUMEN
 588              		.loc 1 140 0
 589 0338 3848     		ldr	r0, .L56+4
 590 033a FFF7FEFF 		bl	RS232_PutString
 591              	.LVL105:
 141:.\Print.c     **** 	digito=0;
 592              		.loc 1 141 0
 593 033e 0022     		movs	r2, #0
 142:.\Print.c     **** 	for(x=6;x>=1;x--){
 594              		.loc 1 142 0
 595 0340 0624     		movs	r4, #6
 596 0342 17E0     		b	.L36
 597              	.LVL106:
 598              	.L40:
 143:.\Print.c     ****         if((volumen[x]==0)&&(digito==0)){
 599              		.loc 1 143 0
 600 0344 2F19     		adds	r7, r5, r4
 601 0346 2B5D     		ldrb	r3, [r5, r4]	@ zero_extendqisi2
 602 0348 3BB9     		cbnz	r3, .L37
 603              		.loc 1 143 0 is_stmt 0 discriminator 1
 604 034a 32B9     		cbnz	r2, .L37
 144:.\Print.c     **** 			if(x==3){
 605              		.loc 1 144 0 is_stmt 1
 606 034c 032C     		cmp	r4, #3
 607 034e 0FD1     		bne	.L38
 145:.\Print.c     **** 				RS232_PutChar('0');
 608              		.loc 1 145 0
 609 0350 3020     		movs	r0, #48
 610 0352 FFF7FEFF 		bl	RS232_PutChar
 611              	.LVL107:
 146:.\Print.c     **** 				digito=1;
 612              		.loc 1 146 0
 613 0356 0122     		movs	r2, #1
 614 0358 0AE0     		b	.L38
 615              	.LVL108:
 616              	.L37:
 147:.\Print.c     **** 			}      	    
 148:.\Print.c     ****         }
 149:.\Print.c     ****         else{
 150:.\Print.c     **** 			if(x==2){
 617              		.loc 1 150 0
 618 035a 022C     		cmp	r4, #2
 619 035c 02D1     		bne	.L39
 151:.\Print.c     **** 				RS232_PutChar(',');
 620              		.loc 1 151 0
 621 035e 2C20     		movs	r0, #44
ARM GAS  C:\Users\ASUS\AppData\Local\Temp\ccBdy8zT.s 			page 15


 622 0360 FFF7FEFF 		bl	RS232_PutChar
 623              	.LVL109:
 624              	.L39:
 152:.\Print.c     **** 			}
 153:.\Print.c     ****             digito=1;
 154:.\Print.c     ****             RS232_PutChar(volumen[x]+48);
 625              		.loc 1 154 0
 626 0364 3878     		ldrb	r0, [r7]	@ zero_extendqisi2
 627 0366 3030     		adds	r0, r0, #48
 628 0368 C0B2     		uxtb	r0, r0
 629 036a FFF7FEFF 		bl	RS232_PutChar
 630              	.LVL110:
 153:.\Print.c     ****             RS232_PutChar(volumen[x]+48);
 631              		.loc 1 153 0
 632 036e 0122     		movs	r2, #1
 633              	.LVL111:
 634              	.L38:
 142:.\Print.c     ****         if((volumen[x]==0)&&(digito==0)){
 635              		.loc 1 142 0 discriminator 2
 636 0370 013C     		subs	r4, r4, #1
 637              	.LVL112:
 638 0372 E4B2     		uxtb	r4, r4
 639              	.LVL113:
 640              	.L36:
 142:.\Print.c     ****         if((volumen[x]==0)&&(digito==0)){
 641              		.loc 1 142 0 is_stmt 0 discriminator 1
 642 0374 002C     		cmp	r4, #0
 643 0376 E5D1     		bne	.L40
 155:.\Print.c     ****         }	
 156:.\Print.c     **** 	}
 157:.\Print.c     **** 	RS232_PutChar(volumen[0]+48);
 644              		.loc 1 157 0 is_stmt 1
 645 0378 2878     		ldrb	r0, [r5]	@ zero_extendqisi2
 646 037a 3030     		adds	r0, r0, #48
 647 037c C0B2     		uxtb	r0, r0
 648 037e FFF7FEFF 		bl	RS232_PutChar
 649              	.LVL114:
 158:.\Print.c     ****     RS232_PutChar(10);										//DINERO							
 650              		.loc 1 158 0
 651 0382 0A20     		movs	r0, #10
 652 0384 FFF7FEFF 		bl	RS232_PutChar
 653              	.LVL115:
 159:.\Print.c     **** 	RS232_PutString("DINERO:    $ ");
 654              		.loc 1 159 0
 655 0388 2548     		ldr	r0, .L56+8
 656 038a FFF7FEFF 		bl	RS232_PutString
 657              	.LVL116:
 160:.\Print.c     ****     digito=0;	
 658              		.loc 1 160 0
 659 038e 0023     		movs	r3, #0
 161:.\Print.c     **** 	for(x=6;x>=1;x--){
 660              		.loc 1 161 0
 661 0390 0624     		movs	r4, #6
 662 0392 09E0     		b	.L41
 663              	.LVL117:
 664              	.L44:
 162:.\Print.c     ****         if((dinero[x]==0)&&(digito==0)){
ARM GAS  C:\Users\ASUS\AppData\Local\Temp\ccBdy8zT.s 			page 16


 665              		.loc 1 162 0
 666 0394 305D     		ldrb	r0, [r6, r4]	@ zero_extendqisi2
 667 0396 00B9     		cbnz	r0, .L42
 668              		.loc 1 162 0 is_stmt 0 discriminator 1
 669 0398 23B1     		cbz	r3, .L43
 670              	.L42:
 671              	.LVL118:
 163:.\Print.c     ****             
 164:.\Print.c     ****         }
 165:.\Print.c     ****         else{
 166:.\Print.c     ****             digito=1;
 167:.\Print.c     ****             RS232_PutChar(dinero[x]+48);
 672              		.loc 1 167 0 is_stmt 1
 673 039a 3030     		adds	r0, r0, #48
 674 039c C0B2     		uxtb	r0, r0
 675 039e FFF7FEFF 		bl	RS232_PutChar
 676              	.LVL119:
 166:.\Print.c     ****             RS232_PutChar(dinero[x]+48);
 677              		.loc 1 166 0
 678 03a2 0123     		movs	r3, #1
 679              	.LVL120:
 680              	.L43:
 161:.\Print.c     ****         if((dinero[x]==0)&&(digito==0)){
 681              		.loc 1 161 0 discriminator 2
 682 03a4 013C     		subs	r4, r4, #1
 683              	.LVL121:
 684 03a6 E4B2     		uxtb	r4, r4
 685              	.LVL122:
 686              	.L41:
 161:.\Print.c     ****         if((dinero[x]==0)&&(digito==0)){
 687              		.loc 1 161 0 is_stmt 0 discriminator 1
 688 03a8 002C     		cmp	r4, #0
 689 03aa F3D1     		bne	.L44
 168:.\Print.c     ****         }	
 169:.\Print.c     **** 	}
 170:.\Print.c     **** 	if(version == 6){
 690              		.loc 1 170 0 is_stmt 1
 691 03ac 1D4B     		ldr	r3, .L56+12
 692              	.LVL123:
 693 03ae 1B78     		ldrb	r3, [r3]	@ zero_extendqisi2
 694 03b0 DBB2     		uxtb	r3, r3
 695 03b2 062B     		cmp	r3, #6
 696 03b4 04D1     		bne	.L45
 171:.\Print.c     **** 		RS232_PutChar(dinero[0]+48);
 697              		.loc 1 171 0
 698 03b6 3078     		ldrb	r0, [r6]	@ zero_extendqisi2
 699 03b8 3030     		adds	r0, r0, #48
 700 03ba C0B2     		uxtb	r0, r0
 701 03bc FFF7FEFF 		bl	RS232_PutChar
 702              	.LVL124:
 703              	.L45:
 172:.\Print.c     **** 	} 
 173:.\Print.c     ****     RS232_PutChar(10);
 704              		.loc 1 173 0
 705 03c0 0A20     		movs	r0, #10
 706 03c2 FFF7FEFF 		bl	RS232_PutChar
 707              	.LVL125:
ARM GAS  C:\Users\ASUS\AppData\Local\Temp\ccBdy8zT.s 			page 17


 174:.\Print.c     ****     RS232_PutChar(10);
 708              		.loc 1 174 0
 709 03c6 0A20     		movs	r0, #10
 710 03c8 FFF7FEFF 		bl	RS232_PutChar
 711              	.LVL126:
 175:.\Print.c     **** 	RS232_PutChar(10);                																											
 712              		.loc 1 175 0
 713 03cc 0A20     		movs	r0, #10
 714 03ce FFF7FEFF 		bl	RS232_PutChar
 715              	.LVL127:
 176:.\Print.c     **** 	RS232_PutString("      GRACIAS POR SU COMPRA");                     //LEMA1
 716              		.loc 1 176 0
 717 03d2 1548     		ldr	r0, .L56+16
 718 03d4 FFF7FEFF 		bl	RS232_PutString
 719              	.LVL128:
 177:.\Print.c     **** 	RS232_PutChar(10); 																											
 720              		.loc 1 177 0
 721 03d8 0A20     		movs	r0, #10
 722 03da FFF7FEFF 		bl	RS232_PutChar
 723              	.LVL129:
 178:.\Print.c     **** 	RS232_PutString("          VUELVA PRONTO");                        //LEMA2
 724              		.loc 1 178 0
 725 03de 1348     		ldr	r0, .L56+20
 726 03e0 FFF7FEFF 		bl	RS232_PutString
 727              	.LVL130:
 179:.\Print.c     ****     RS232_PutChar(10); 
 728              		.loc 1 179 0
 729 03e4 0A20     		movs	r0, #10
 730 03e6 FFF7FEFF 		bl	RS232_PutChar
 731              	.LVL131:
 180:.\Print.c     ****     RS232_PutChar(10); 
 732              		.loc 1 180 0
 733 03ea 0A20     		movs	r0, #10
 734 03ec FFF7FEFF 		bl	RS232_PutChar
 735              	.LVL132:
 181:.\Print.c     ****     RS232_PutChar(10);
 736              		.loc 1 181 0
 737 03f0 0A20     		movs	r0, #10
 738 03f2 FFF7FEFF 		bl	RS232_PutChar
 739              	.LVL133:
 182:.\Print.c     ****     RS232_PutChar(10);
 740              		.loc 1 182 0
 741 03f6 0A20     		movs	r0, #10
 742 03f8 FFF7FEFF 		bl	RS232_PutChar
 743              	.LVL134:
 183:.\Print.c     **** 	RS232_PutChar(10); 
 744              		.loc 1 183 0
 745 03fc 0A20     		movs	r0, #10
 746 03fe FFF7FEFF 		bl	RS232_PutChar
 747              	.LVL135:
 184:.\Print.c     ****     RS232_PutChar(0x1D);
 748              		.loc 1 184 0
 749 0402 1D20     		movs	r0, #29
 750 0404 FFF7FEFF 		bl	RS232_PutChar
 751              	.LVL136:
 185:.\Print.c     ****     RS232_PutChar(0x56);
 752              		.loc 1 185 0
ARM GAS  C:\Users\ASUS\AppData\Local\Temp\ccBdy8zT.s 			page 18


 753 0408 5620     		movs	r0, #86
 754 040a FFF7FEFF 		bl	RS232_PutChar
 755              	.LVL137:
 186:.\Print.c     **** 	RS232_PutChar(0x31);    
 756              		.loc 1 186 0
 757 040e 3120     		movs	r0, #49
 758 0410 FFF7FEFF 		bl	RS232_PutChar
 759              	.LVL138:
 760 0414 BDE8F883 		pop	{r3, r4, r5, r6, r7, r8, r9, pc}
 761              	.LVL139:
 762              	.L57:
 763              		.align	2
 764              	.L56:
 765 0418 00000000 		.word	ppux10
 766 041c 64000000 		.word	.LC8
 767 0420 74000000 		.word	.LC9
 768 0424 00000000 		.word	version
 769 0428 84000000 		.word	.LC10
 770 042c A0000000 		.word	.LC11
 771              		.cfi_endproc
 772              	.LFE63:
 773              		.size	imprimir, .-imprimir
 774              		.comm	print2,2,4
 775              		.comm	print1,2,4
 776              		.comm	rventa2,99,4
 777              		.comm	rventa1,99,4
 778              		.comm	hora,2,4
 779              		.comm	fecha,3,4
 780              		.comm	km,2,4
 781              		.comm	id_logo,2,4
 782              		.comm	lema2,32,4
 783              		.comm	lema1,32,4
 784              		.comm	direccion,33,4
 785              		.comm	telefono,20,4
 786              		.comm	nit,15,4
 787              		.comm	nombre,33,4
 788              		.comm	lado2,92,4
 789              		.comm	lado1,92,4
 790              		.comm	version,1,1
 791              		.comm	nombre_pro3,17,4
 792              		.comm	nombre_pro2,17,4
 793              		.comm	nombre_pro1,17,4
 794              		.comm	ppux10,1,1
 795              		.section	.rodata.str1.4,"aMS",%progbits,1
 796              		.align	2
 797              	.LC0:
 798 0000 20202020 		.ascii	"      ESTACION DE SERVICIO\012\000"
 798      20204553 
 798      54414349 
 798      4F4E2044 
 798      45205345 
 799              	.LC1:
 800 001c 4E495420 		.ascii	"NIT \000"
 800      00
 801 0021 000000   		.space	3
 802              	.LC2:
 803 0024 54454C3A 		.ascii	"TEL:\000"
ARM GAS  C:\Users\ASUS\AppData\Local\Temp\ccBdy8zT.s 			page 19


 803      00
 804 0029 000000   		.space	3
 805              	.LC3:
 806 002c 46454348 		.ascii	"FECHA: \000"
 806      413A2000 
 807              	.LC4:
 808 0034 484F5241 		.ascii	"HORA:  \000"
 808      3A202000 
 809              	.LC5:
 810 003c 504F5349 		.ascii	"POSICION:  \000"
 810      43494F4E 
 810      3A202000 
 811              	.LC6:
 812 0048 50524F44 		.ascii	"PRODUCTO:  \000"
 812      5543544F 
 812      3A202000 
 813              	.LC7:
 814 0054 5050553A 		.ascii	"PPU:       $/G \000"
 814      20202020 
 814      20202024 
 814      2F472000 
 815              	.LC8:
 816 0064 564F4C55 		.ascii	"VOLUMEN:   G \000"
 816      4D454E3A 
 816      20202047 
 816      2000
 817 0072 0000     		.space	2
 818              	.LC9:
 819 0074 44494E45 		.ascii	"DINERO:    $ \000"
 819      524F3A20 
 819      20202024 
 819      2000
 820 0082 0000     		.space	2
 821              	.LC10:
 822 0084 20202020 		.ascii	"      GRACIAS POR SU COMPRA\000"
 822      20204752 
 822      41434941 
 822      5320504F 
 822      52205355 
 823              	.LC11:
 824 00a0 20202020 		.ascii	"          VUELVA PRONTO\000"
 824      20202020 
 824      20205655 
 824      454C5641 
 824      2050524F 
 825              		.text
 826              	.Letext0:
 827              		.file 2 "c:\\program files (x86)\\cypress\\psoc creator\\3.3\\psoc creator\\import\\gnu\\arm\\4.9.
 828              		.file 3 "c:\\program files (x86)\\cypress\\psoc creator\\3.3\\psoc creator\\import\\gnu\\arm\\4.9.
 829              		.file 4 "Generated_Source\\PSoC5/cytypes.h"
 830              		.file 5 ".\\VariablesG.h"
 831              		.file 6 "Generated_Source\\PSoC5/core_cm3.h"
 832              		.file 7 "Generated_Source\\PSoC5/RS232.h"
 833              		.file 8 ".\\i2c.h"