ARM GAS  C:\Users\leo40\AppData\Local\Temp\ccRH9XFk.s 			page 1


   1              		.syntax unified
   2              		.cpu cortex-m3
   3              		.fpu softvfp
   4              		.eabi_attribute 20, 1
   5              		.eabi_attribute 21, 1
   6              		.eabi_attribute 23, 3
   7              		.eabi_attribute 24, 1
   8              		.eabi_attribute 25, 1
   9              		.eabi_attribute 26, 1
  10              		.eabi_attribute 30, 1
  11              		.eabi_attribute 34, 1
  12              		.eabi_attribute 18, 4
  13              		.thumb
  14              		.syntax unified
  15              		.file	"main.c"
  16              		.text
  17              	.Ltext0:
  18              		.cfi_sections	.debug_frame
  19              		.syntax unified
  20              		.global _printf_float
  21              		.thumb
  22              		.syntax unified
  23              		.section	.text.init,"ax",%progbits
  24              		.align	2
  25              		.global	init
  26              		.thumb
  27              		.thumb_func
  28              		.type	init, %function
  29              	init:
  30              	.LFB64:
  31              		.file 1 "main.c"
   1:main.c        **** /*
   2:main.c        **** ***************************************************************************************************
   3:main.c        **** *                                         FC_Impresion CODE
   4:main.c        **** *
   5:main.c        **** *                             (c) Copyright 2016; Distracom S.A
   6:main.c        **** *
   7:main.c        **** *               All rights reserved.  Protected by international copyright laws.
   8:main.c        **** *               Knowledge of the source code may NOT be used to develop a similar product.
   9:main.c        **** *               Please help us continue to provide the Embedded community with the finest
  10:main.c        **** *               software available.  Your honesty is greatly appreciated.
  11:main.c        **** ***************************************************************************************************
  12:main.c        **** */
  13:main.c        **** 
  14:main.c        **** /*
  15:main.c        **** ***************************************************************************************************
  16:main.c        **** *
  17:main.c        **** *                                            FC_Impresion CODE
  18:main.c        **** *
  19:main.c        **** *                                             CYPRESS PSoC5LP
  20:main.c        **** *                                                with the
  21:main.c        **** *                                            CY8C5888LTI-LP097
  22:main.c        **** *
  23:main.c        **** * Filename      : main.c
  24:main.c        **** * Version       : V1.00
  25:main.c        **** * Programmer(s) : Leonardo Orjuela   
  26:main.c        ****                   
ARM GAS  C:\Users\leo40\AppData\Local\Temp\ccRH9XFk.s 			page 2


  27:main.c        **** ***************************************************************************************************
  28:main.c        **** */
  29:main.c        **** 
  30:main.c        **** /*
  31:main.c        **** ***************************************************************************************************
  32:main.c        **** *                                           INCLUDE FILES AND DEFINE
  33:main.c        **** ***************************************************************************************************
  34:main.c        **** */
  35:main.c        **** #include <project.h>
  36:main.c        **** #include "stdio.h"
  37:main.c        **** #include "Protocolo.h"
  38:main.c        **** #include "VariablesG.h"
  39:main.c        **** #include "Print.h"
  40:main.c        **** #include "i2c.h"
  41:main.c        **** 
  42:main.c        **** #if defined (__GNUC__)
  43:main.c        ****     /* Add an explicit reference to the floating point printf library */
  44:main.c        ****     /* to allow the usage of floating point conversion specifiers. */
  45:main.c        ****     /* This is not linked in by default with the newlib-nano library. */
  46:main.c        ****     asm (".global _printf_float");
  47:main.c        **** #endif
  48:main.c        **** 
  49:main.c        **** #define versionFC 10
  50:main.c        **** #define BUFFER_LEN  64u
  51:main.c        **** 
  52:main.c        **** char8 *parity[] = { "None", "Odd", "Even", "Mark", "Space" };
  53:main.c        **** char8 *stop[] = { "1", "1.5", "2" };
  54:main.c        **** 
  55:main.c        **** /*
  56:main.c        **** ***************************************************************************************************
  57:main.c        **** *                                           init( void )
  58:main.c        **** *
  59:main.c        **** * Description : Verifica el serial, inicia los perisfericos, la version y los datos de la estación
  60:main.c        **** *               
  61:main.c        **** *
  62:main.c        **** * Argument(s) : none
  63:main.c        **** *
  64:main.c        **** * Return(s)   : none
  65:main.c        **** *
  66:main.c        **** * Caller(s)   : main()
  67:main.c        **** *
  68:main.c        **** * Note(s)     : none.
  69:main.c        **** ***************************************************************************************************
  70:main.c        **** */
  71:main.c        **** void init (void){
  32              		.loc 1 71 0
  33              		.cfi_startproc
  34              		@ args = 0, pretend = 0, frame = 0
  35              		@ frame_needed = 0, uses_anonymous_args = 0
  36 0000 F8B5     		push	{r3, r4, r5, r6, r7, lr}
  37              		.cfi_def_cfa_offset 24
  38              		.cfi_offset 3, -24
  39              		.cfi_offset 4, -20
  40              		.cfi_offset 5, -16
  41              		.cfi_offset 6, -12
  42              		.cfi_offset 7, -8
  43              		.cfi_offset 14, -4
ARM GAS  C:\Users\leo40\AppData\Local\Temp\ccRH9XFk.s 			page 3


  72:main.c        ****     uint8 x;
  73:main.c        ****     CyGlobalIntEnable; /* Enable global interrupts. */
  44              		.loc 1 73 0
  45              		.syntax unified
  46              	@ 73 "main.c" 1
  47 0002 62B6     		CPSIE   i
  48              	@ 0 "" 2
  74:main.c        ****     Surtidor_EnableRxInt();
  49              		.loc 1 74 0
  50              		.thumb
  51              		.syntax unified
  52 0004 6A4B     		ldr	r3, .L17
  53 0006 0426     		movs	r6, #4
  54 0008 1E60     		str	r6, [r3]
  75:main.c        ****     RS232_EnableRxInt();
  55              		.loc 1 75 0
  56 000a 0225     		movs	r5, #2
  57 000c 1D60     		str	r5, [r3]
  76:main.c        ****     I2C_1_Start();
  58              		.loc 1 76 0
  59 000e FFF7FEFF 		bl	I2C_1_Start
  60              	.LVL0:
  77:main.c        ****     Surtidor_Start();
  61              		.loc 1 77 0
  62 0012 FFF7FEFF 		bl	Surtidor_Start
  63              	.LVL1:
  78:main.c        ****     RS232_Start();
  64              		.loc 1 78 0
  65 0016 FFF7FEFF 		bl	RS232_Start
  66              	.LVL2:
  79:main.c        ****     USBUART_Start(0u, USBUART_3V_OPERATION);
  67              		.loc 1 79 0
  68 001a 0021     		movs	r1, #0
  69 001c 0846     		mov	r0, r1
  70 001e FFF7FEFF 		bl	USBUART_Start
  71              	.LVL3:
  80:main.c        ****     EEPROM_Start();
  72              		.loc 1 80 0
  73 0022 FFF7FEFF 		bl	EEPROM_Start
  74              	.LVL4:
  81:main.c        ****     CyDelay(100);
  75              		.loc 1 81 0
  76 0026 6420     		movs	r0, #100
  77 0028 FFF7FEFF 		bl	CyDelay
  78              	.LVL5:
  82:main.c        ****     /************Lectura de Eeprom***************/
  83:main.c        ****     lado1.dir = EEPROM_ReadByte(0);							//Lado A
  79              		.loc 1 83 0
  80 002c 0020     		movs	r0, #0
  81 002e FFF7FEFF 		bl	EEPROM_ReadByte
  82              	.LVL6:
  83 0032 604F     		ldr	r7, .L17+4
  84 0034 3870     		strb	r0, [r7]
  84:main.c        **** 	lado2.dir = EEPROM_ReadByte(1);							//Lado B
  85              		.loc 1 84 0
  86 0036 0120     		movs	r0, #1
  87 0038 FFF7FEFF 		bl	EEPROM_ReadByte
ARM GAS  C:\Users\leo40\AppData\Local\Temp\ccRH9XFk.s 			page 4


  88              	.LVL7:
  89 003c 5E4B     		ldr	r3, .L17+8
  90 003e 1870     		strb	r0, [r3]
  85:main.c        ****     lado1.dir = 1;							//Lado A
  91              		.loc 1 85 0
  92 0040 0124     		movs	r4, #1
  93 0042 3C70     		strb	r4, [r7]
  86:main.c        **** 	lado2.dir = 2;							//Lado B    
  94              		.loc 1 86 0
  95 0044 1D70     		strb	r5, [r3]
  87:main.c        ****     version   = EEPROM_ReadByte(2);							//Version
  96              		.loc 1 87 0
  97 0046 2846     		mov	r0, r5
  98 0048 FFF7FEFF 		bl	EEPROM_ReadByte
  99              	.LVL8:
 100 004c 5B4B     		ldr	r3, .L17+12
 101 004e 1870     		strb	r0, [r3]
  88:main.c        ****     ppux10    = EEPROM_ReadByte(3);							//Pppux10
 102              		.loc 1 88 0
 103 0050 0320     		movs	r0, #3
 104 0052 FFF7FEFF 		bl	EEPROM_ReadByte
 105              	.LVL9:
 106 0056 5A4B     		ldr	r3, .L17+16
 107 0058 1870     		strb	r0, [r3]
  89:main.c        ****     nombre[0] = EEPROM_ReadByte(4);							//Tamaño del nombre de la estacion
 108              		.loc 1 89 0
 109 005a 3046     		mov	r0, r6
 110 005c FFF7FEFF 		bl	EEPROM_ReadByte
 111              	.LVL10:
 112 0060 584B     		ldr	r3, .L17+20
 113 0062 1870     		strb	r0, [r3]
 114              	.LVL11:
  90:main.c        ****     for(x=1;x<=nombre[0];x++){                              //Nombre de la estacion
 115              		.loc 1 90 0
 116 0064 06E0     		b	.L2
 117              	.LVL12:
 118              	.L3:
  91:main.c        ****         nombre[x] = EEPROM_ReadByte(x+4);							
 119              		.loc 1 91 0 discriminator 3
 120 0066 201D     		adds	r0, r4, #4
 121 0068 FFF7FEFF 		bl	EEPROM_ReadByte
 122              	.LVL13:
 123 006c 554B     		ldr	r3, .L17+20
 124 006e 1855     		strb	r0, [r3, r4]
  90:main.c        ****     for(x=1;x<=nombre[0];x++){                              //Nombre de la estacion
 125              		.loc 1 90 0 discriminator 3
 126 0070 0134     		adds	r4, r4, #1
 127              	.LVL14:
 128 0072 E4B2     		uxtb	r4, r4
 129              	.LVL15:
 130              	.L2:
  90:main.c        ****     for(x=1;x<=nombre[0];x++){                              //Nombre de la estacion
 131              		.loc 1 90 0 is_stmt 0 discriminator 1
 132 0074 534B     		ldr	r3, .L17+20
 133 0076 1B78     		ldrb	r3, [r3]	@ zero_extendqisi2
 134 0078 DBB2     		uxtb	r3, r3
 135 007a 9C42     		cmp	r4, r3
ARM GAS  C:\Users\leo40\AppData\Local\Temp\ccRH9XFk.s 			page 5


 136 007c F3D9     		bls	.L3
  92:main.c        ****     }
  93:main.c        ****     nit[0]    = EEPROM_ReadByte(34);					    //Tamaño Nit
 137              		.loc 1 93 0 is_stmt 1
 138 007e 2220     		movs	r0, #34
 139 0080 FFF7FEFF 		bl	EEPROM_ReadByte
 140              	.LVL16:
 141 0084 504B     		ldr	r3, .L17+24
 142 0086 1870     		strb	r0, [r3]
 143              	.LVL17:
  94:main.c        ****     for(x=1;x<=nit[0];x++){                                 //Nit
 144              		.loc 1 94 0
 145 0088 0124     		movs	r4, #1
 146 008a 07E0     		b	.L4
 147              	.LVL18:
 148              	.L5:
  95:main.c        ****         nit[x] = EEPROM_ReadByte(x+34);							
 149              		.loc 1 95 0 discriminator 3
 150 008c 04F12200 		add	r0, r4, #34
 151 0090 FFF7FEFF 		bl	EEPROM_ReadByte
 152              	.LVL19:
 153 0094 4C4B     		ldr	r3, .L17+24
 154 0096 1855     		strb	r0, [r3, r4]
  94:main.c        ****     for(x=1;x<=nit[0];x++){                                 //Nit
 155              		.loc 1 94 0 discriminator 3
 156 0098 0134     		adds	r4, r4, #1
 157              	.LVL20:
 158 009a E4B2     		uxtb	r4, r4
 159              	.LVL21:
 160              	.L4:
  94:main.c        ****     for(x=1;x<=nit[0];x++){                                 //Nit
 161              		.loc 1 94 0 is_stmt 0 discriminator 1
 162 009c 4A4B     		ldr	r3, .L17+24
 163 009e 1B78     		ldrb	r3, [r3]	@ zero_extendqisi2
 164 00a0 DBB2     		uxtb	r3, r3
 165 00a2 9C42     		cmp	r4, r3
 166 00a4 F2D9     		bls	.L5
  96:main.c        ****     }
  97:main.c        ****     direccion[0] = EEPROM_ReadByte(64);					    //Tamaño direccion
 167              		.loc 1 97 0 is_stmt 1
 168 00a6 4020     		movs	r0, #64
 169 00a8 FFF7FEFF 		bl	EEPROM_ReadByte
 170              	.LVL22:
 171 00ac 474B     		ldr	r3, .L17+28
 172 00ae 1870     		strb	r0, [r3]
 173              	.LVL23:
  98:main.c        ****     for(x=1;x<=direccion[0];x++){                           //direccion
 174              		.loc 1 98 0
 175 00b0 0124     		movs	r4, #1
 176 00b2 07E0     		b	.L6
 177              	.LVL24:
 178              	.L7:
  99:main.c        ****         direccion[x] = EEPROM_ReadByte(x+64);							
 179              		.loc 1 99 0 discriminator 3
 180 00b4 04F14000 		add	r0, r4, #64
 181 00b8 FFF7FEFF 		bl	EEPROM_ReadByte
 182              	.LVL25:
ARM GAS  C:\Users\leo40\AppData\Local\Temp\ccRH9XFk.s 			page 6


 183 00bc 434B     		ldr	r3, .L17+28
 184 00be 1855     		strb	r0, [r3, r4]
  98:main.c        ****     for(x=1;x<=direccion[0];x++){                           //direccion
 185              		.loc 1 98 0 discriminator 3
 186 00c0 0134     		adds	r4, r4, #1
 187              	.LVL26:
 188 00c2 E4B2     		uxtb	r4, r4
 189              	.LVL27:
 190              	.L6:
  98:main.c        ****     for(x=1;x<=direccion[0];x++){                           //direccion
 191              		.loc 1 98 0 is_stmt 0 discriminator 1
 192 00c4 414B     		ldr	r3, .L17+28
 193 00c6 1B78     		ldrb	r3, [r3]	@ zero_extendqisi2
 194 00c8 DBB2     		uxtb	r3, r3
 195 00ca 9C42     		cmp	r4, r3
 196 00cc F2D9     		bls	.L7
 100:main.c        ****     }
 101:main.c        ****     telefono[0] = EEPROM_ReadByte(49);					    //Tamaño telefono
 197              		.loc 1 101 0 is_stmt 1
 198 00ce 3120     		movs	r0, #49
 199 00d0 FFF7FEFF 		bl	EEPROM_ReadByte
 200              	.LVL28:
 201 00d4 3E4B     		ldr	r3, .L17+32
 202 00d6 1870     		strb	r0, [r3]
 203              	.LVL29:
 102:main.c        ****     for(x=1;x<=telefono[0];x++){                            //telefono
 204              		.loc 1 102 0
 205 00d8 0124     		movs	r4, #1
 206 00da 07E0     		b	.L8
 207              	.LVL30:
 208              	.L9:
 103:main.c        ****         telefono[x] = EEPROM_ReadByte(x+49);							
 209              		.loc 1 103 0 discriminator 3
 210 00dc 04F13100 		add	r0, r4, #49
 211 00e0 FFF7FEFF 		bl	EEPROM_ReadByte
 212              	.LVL31:
 213 00e4 3A4B     		ldr	r3, .L17+32
 214 00e6 1855     		strb	r0, [r3, r4]
 102:main.c        ****     for(x=1;x<=telefono[0];x++){                            //telefono
 215              		.loc 1 102 0 discriminator 3
 216 00e8 0134     		adds	r4, r4, #1
 217              	.LVL32:
 218 00ea E4B2     		uxtb	r4, r4
 219              	.LVL33:
 220              	.L8:
 102:main.c        ****     for(x=1;x<=telefono[0];x++){                            //telefono
 221              		.loc 1 102 0 is_stmt 0 discriminator 1
 222 00ec 384B     		ldr	r3, .L17+32
 223 00ee 1B78     		ldrb	r3, [r3]	@ zero_extendqisi2
 224 00f0 DBB2     		uxtb	r3, r3
 225 00f2 9C42     		cmp	r4, r3
 226 00f4 F2D9     		bls	.L9
 104:main.c        ****     }
 105:main.c        ****     lado1.grado[0][0] = EEPROM_ReadByte(94);				//Codigo manguera 1 lado 1
 227              		.loc 1 105 0 is_stmt 1
 228 00f6 5E20     		movs	r0, #94
 229 00f8 FFF7FEFF 		bl	EEPROM_ReadByte
ARM GAS  C:\Users\leo40\AppData\Local\Temp\ccRH9XFk.s 			page 7


 230              	.LVL34:
 231 00fc 2D4C     		ldr	r4, .L17+4
 232              	.LVL35:
 233 00fe 84F85800 		strb	r0, [r4, #88]
 106:main.c        ****     lado1.grado[1][0] = EEPROM_ReadByte(95);				//Codigo manguera 2 lado 1
 234              		.loc 1 106 0
 235 0102 5F20     		movs	r0, #95
 236 0104 FFF7FEFF 		bl	EEPROM_ReadByte
 237              	.LVL36:
 238 0108 84F85900 		strb	r0, [r4, #89]
 107:main.c        ****     lado1.grado[2][0] = EEPROM_ReadByte(96);				//Codigo manguera 3 lado 1
 239              		.loc 1 107 0
 240 010c 6020     		movs	r0, #96
 241 010e FFF7FEFF 		bl	EEPROM_ReadByte
 242              	.LVL37:
 243 0112 84F85A00 		strb	r0, [r4, #90]
 108:main.c        ****     lado2.grado[0][0] = EEPROM_ReadByte(142);				//Codigo manguera 1 lado 2
 244              		.loc 1 108 0
 245 0116 8E20     		movs	r0, #142
 246 0118 FFF7FEFF 		bl	EEPROM_ReadByte
 247              	.LVL38:
 248 011c 264C     		ldr	r4, .L17+8
 249 011e 84F85800 		strb	r0, [r4, #88]
 109:main.c        ****     lado2.grado[1][0] = EEPROM_ReadByte(143);				//Codigo manguera 2 lado 2
 250              		.loc 1 109 0
 251 0122 8F20     		movs	r0, #143
 252 0124 FFF7FEFF 		bl	EEPROM_ReadByte
 253              	.LVL39:
 254 0128 84F85900 		strb	r0, [r4, #89]
 110:main.c        ****     lado2.grado[2][0] = EEPROM_ReadByte(144);				//Codigo manguera 3 lado 2  
 255              		.loc 1 110 0
 256 012c 9020     		movs	r0, #144
 257 012e FFF7FEFF 		bl	EEPROM_ReadByte
 258              	.LVL40:
 259 0132 84F85A00 		strb	r0, [r4, #90]
 111:main.c        ****     nombre_pro1[0]    = EEPROM_ReadByte(97);				//Tamaño nombre producto 1
 260              		.loc 1 111 0
 261 0136 6120     		movs	r0, #97
 262 0138 FFF7FEFF 		bl	EEPROM_ReadByte
 263              	.LVL41:
 264 013c 254B     		ldr	r3, .L17+36
 265 013e 1870     		strb	r0, [r3]
 266              	.LVL42:
 112:main.c        ****     for(x=1;x<=nombre_pro1[0];x++){                         //Producto 1
 267              		.loc 1 112 0
 268 0140 0124     		movs	r4, #1
 269 0142 07E0     		b	.L10
 270              	.LVL43:
 271              	.L11:
 113:main.c        ****         nombre_pro1[x] = EEPROM_ReadByte(x+97);							
 272              		.loc 1 113 0 discriminator 3
 273 0144 04F16100 		add	r0, r4, #97
 274 0148 FFF7FEFF 		bl	EEPROM_ReadByte
 275              	.LVL44:
 276 014c 214B     		ldr	r3, .L17+36
 277 014e 1855     		strb	r0, [r3, r4]
 112:main.c        ****     for(x=1;x<=nombre_pro1[0];x++){                         //Producto 1
ARM GAS  C:\Users\leo40\AppData\Local\Temp\ccRH9XFk.s 			page 8


 278              		.loc 1 112 0 discriminator 3
 279 0150 0134     		adds	r4, r4, #1
 280              	.LVL45:
 281 0152 E4B2     		uxtb	r4, r4
 282              	.LVL46:
 283              	.L10:
 112:main.c        ****     for(x=1;x<=nombre_pro1[0];x++){                         //Producto 1
 284              		.loc 1 112 0 is_stmt 0 discriminator 1
 285 0154 1F4B     		ldr	r3, .L17+36
 286 0156 1B78     		ldrb	r3, [r3]	@ zero_extendqisi2
 287 0158 DBB2     		uxtb	r3, r3
 288 015a 9C42     		cmp	r4, r3
 289 015c F2D9     		bls	.L11
 114:main.c        ****     } 
 115:main.c        ****     nombre_pro2[0]    = EEPROM_ReadByte(112);				//Tamaño nombre producto 2
 290              		.loc 1 115 0 is_stmt 1
 291 015e 7020     		movs	r0, #112
 292 0160 FFF7FEFF 		bl	EEPROM_ReadByte
 293              	.LVL47:
 294 0164 1C4B     		ldr	r3, .L17+40
 295 0166 1870     		strb	r0, [r3]
 296              	.LVL48:
 116:main.c        ****     for(x=1;x<=nombre_pro2[0];x++){                         //Producto 2
 297              		.loc 1 116 0
 298 0168 0124     		movs	r4, #1
 299 016a 07E0     		b	.L12
 300              	.LVL49:
 301              	.L13:
 117:main.c        ****         nombre_pro2[x] = EEPROM_ReadByte(x+112);							
 302              		.loc 1 117 0 discriminator 3
 303 016c 04F17000 		add	r0, r4, #112
 304 0170 FFF7FEFF 		bl	EEPROM_ReadByte
 305              	.LVL50:
 306 0174 184B     		ldr	r3, .L17+40
 307 0176 1855     		strb	r0, [r3, r4]
 116:main.c        ****     for(x=1;x<=nombre_pro2[0];x++){                         //Producto 2
 308              		.loc 1 116 0 discriminator 3
 309 0178 0134     		adds	r4, r4, #1
 310              	.LVL51:
 311 017a E4B2     		uxtb	r4, r4
 312              	.LVL52:
 313              	.L12:
 116:main.c        ****     for(x=1;x<=nombre_pro2[0];x++){                         //Producto 2
 314              		.loc 1 116 0 is_stmt 0 discriminator 1
 315 017c 164B     		ldr	r3, .L17+40
 316 017e 1B78     		ldrb	r3, [r3]	@ zero_extendqisi2
 317 0180 DBB2     		uxtb	r3, r3
 318 0182 9C42     		cmp	r4, r3
 319 0184 F2D9     		bls	.L13
 118:main.c        ****     }
 119:main.c        ****     nombre_pro3[0]    = EEPROM_ReadByte(127);				//Tamaño nombre producto 3
 320              		.loc 1 119 0 is_stmt 1
 321 0186 7F20     		movs	r0, #127
 322 0188 FFF7FEFF 		bl	EEPROM_ReadByte
 323              	.LVL53:
 324 018c 134B     		ldr	r3, .L17+44
 325 018e 1870     		strb	r0, [r3]
ARM GAS  C:\Users\leo40\AppData\Local\Temp\ccRH9XFk.s 			page 9


 326              	.LVL54:
 120:main.c        ****     for(x=1;x<=nombre_pro3[0];x++){                         //Producto 3
 327              		.loc 1 120 0
 328 0190 0124     		movs	r4, #1
 329 0192 07E0     		b	.L14
 330              	.LVL55:
 331              	.L15:
 121:main.c        ****         nombre_pro3[x] = EEPROM_ReadByte(x+127);							
 332              		.loc 1 121 0 discriminator 3
 333 0194 04F17F00 		add	r0, r4, #127
 334 0198 FFF7FEFF 		bl	EEPROM_ReadByte
 335              	.LVL56:
 336 019c 0F4B     		ldr	r3, .L17+44
 337 019e 1855     		strb	r0, [r3, r4]
 120:main.c        ****     for(x=1;x<=nombre_pro3[0];x++){                         //Producto 3
 338              		.loc 1 120 0 discriminator 3
 339 01a0 0134     		adds	r4, r4, #1
 340              	.LVL57:
 341 01a2 E4B2     		uxtb	r4, r4
 342              	.LVL58:
 343              	.L14:
 120:main.c        ****     for(x=1;x<=nombre_pro3[0];x++){                         //Producto 3
 344              		.loc 1 120 0 is_stmt 0 discriminator 1
 345 01a4 0D4B     		ldr	r3, .L17+44
 346 01a6 1B78     		ldrb	r3, [r3]	@ zero_extendqisi2
 347 01a8 DBB2     		uxtb	r3, r3
 348 01aa 9C42     		cmp	r4, r3
 349 01ac F2D9     		bls	.L15
 122:main.c        ****     }
 123:main.c        **** }
 350              		.loc 1 123 0 is_stmt 1
 351 01ae F8BD     		pop	{r3, r4, r5, r6, r7, pc}
 352              	.LVL59:
 353              	.L18:
 354              		.align	2
 355              	.L17:
 356 01b0 00E100E0 		.word	-536813312
 357 01b4 00000000 		.word	lado1
 358 01b8 00000000 		.word	lado2
 359 01bc 00000000 		.word	version
 360 01c0 00000000 		.word	ppux10
 361 01c4 00000000 		.word	nombre
 362 01c8 00000000 		.word	nit
 363 01cc 00000000 		.word	direccion
 364 01d0 00000000 		.word	telefono
 365 01d4 00000000 		.word	nombre_pro1
 366 01d8 00000000 		.word	nombre_pro2
 367 01dc 00000000 		.word	nombre_pro3
 368              		.cfi_endproc
 369              	.LFE64:
 370              		.size	init, .-init
 371              		.section	.text.init_surtidor,"ax",%progbits
 372              		.align	2
 373              		.global	init_surtidor
 374              		.thumb
 375              		.thumb_func
 376              		.type	init_surtidor, %function
ARM GAS  C:\Users\leo40\AppData\Local\Temp\ccRH9XFk.s 			page 10


 377              	init_surtidor:
 378              	.LFB65:
 124:main.c        **** /*
 125:main.c        **** ***************************************************************************************************
 126:main.c        **** *                                           init_surtidor( void )
 127:main.c        **** *
 128:main.c        **** * Description : Revisa las posiciones del equipo y su estado actual.
 129:main.c        **** *               
 130:main.c        **** *
 131:main.c        **** * Argument(s) : none
 132:main.c        **** *
 133:main.c        **** * Return(s)   : none
 134:main.c        **** *
 135:main.c        **** * Caller(s)   : main()
 136:main.c        **** *
 137:main.c        **** * Note(s)     : none.
 138:main.c        **** ***************************************************************************************************
 139:main.c        **** */
 140:main.c        **** void init_surtidor( void ){
 379              		.loc 1 140 0
 380              		.cfi_startproc
 381              		@ args = 0, pretend = 0, frame = 0
 382              		@ frame_needed = 0, uses_anonymous_args = 0
 383 0000 10B5     		push	{r4, lr}
 384              		.cfi_def_cfa_offset 8
 385              		.cfi_offset 4, -8
 386              		.cfi_offset 14, -4
 387              	.LVL60:
 141:main.c        ****     uint8 ok=0; 
 142:main.c        ****     uint8 estado,posicion;
 143:main.c        ****     Led_Write(1);
 388              		.loc 1 143 0
 389 0002 0120     		movs	r0, #1
 390 0004 FFF7FEFF 		bl	Led_Write
 391              	.LVL61:
 141:main.c        ****     uint8 ok=0; 
 392              		.loc 1 141 0
 393 0008 0024     		movs	r4, #0
 144:main.c        ****     while(ok!=2){
 394              		.loc 1 144 0
 395 000a 30E0     		b	.L20
 396              	.LVL62:
 397              	.L25:
 145:main.c        ****         ok=0;
 146:main.c        ****         if(lado1.dir==lado2.dir){                       //No hay posiciones guardadas
 398              		.loc 1 146 0
 399 000c 1B4B     		ldr	r3, .L28
 400 000e 1A78     		ldrb	r2, [r3]	@ zero_extendqisi2
 401 0010 D2B2     		uxtb	r2, r2
 402 0012 1B4B     		ldr	r3, .L28+4
 403 0014 1B78     		ldrb	r3, [r3]	@ zero_extendqisi2
 404 0016 DBB2     		uxtb	r3, r3
 405 0018 9A42     		cmp	r2, r3
 406 001a 12D1     		bne	.L21
 147:main.c        ****             posicion = ver_pos();
 407              		.loc 1 147 0
 408 001c FFF7FEFF 		bl	ver_pos
ARM GAS  C:\Users\leo40\AppData\Local\Temp\ccRH9XFk.s 			page 11


 409              	.LVL63:
 148:main.c        ****             if(posicion!=0){
 410              		.loc 1 148 0
 411 0020 78B1     		cbz	r0, .L21
 149:main.c        ****                 lado1.dir = (posicion & 0x0F);
 412              		.loc 1 149 0
 413 0022 00F00F01 		and	r1, r0, #15
 414 0026 154A     		ldr	r2, .L28
 415 0028 1170     		strb	r1, [r2]
 150:main.c        ****                 lado2.dir = ((posicion>>4) & 0x0F);
 416              		.loc 1 150 0
 417 002a C0F30713 		ubfx	r3, r0, #4, #8
 418 002e 144C     		ldr	r4, .L28+4
 419 0030 2370     		strb	r3, [r4]
 151:main.c        ****                 EEPROM_WriteByte(lado1.dir, 0);
 420              		.loc 1 151 0
 421 0032 1078     		ldrb	r0, [r2]	@ zero_extendqisi2
 422              	.LVL64:
 423 0034 0021     		movs	r1, #0
 424 0036 FFF7FEFF 		bl	EEPROM_WriteByte
 425              	.LVL65:
 152:main.c        ****                 EEPROM_WriteByte(lado2.dir, 1);
 426              		.loc 1 152 0
 427 003a 2078     		ldrb	r0, [r4]	@ zero_extendqisi2
 428 003c 0121     		movs	r1, #1
 429 003e FFF7FEFF 		bl	EEPROM_WriteByte
 430              	.LVL66:
 431              	.L21:
 153:main.c        ****             }
 154:main.c        ****         }
 155:main.c        ****         estado = get_estado(lado1.dir);
 432              		.loc 1 155 0
 433 0042 0E4B     		ldr	r3, .L28
 434 0044 1878     		ldrb	r0, [r3]	@ zero_extendqisi2
 435 0046 FFF7FEFF 		bl	get_estado
 436              	.LVL67:
 156:main.c        ****         if(estado != 0){
 437              		.loc 1 156 0
 438 004a 08B9     		cbnz	r0, .L26
 145:main.c        ****         if(lado1.dir==lado2.dir){                       //No hay posiciones guardadas
 439              		.loc 1 145 0
 440 004c 0024     		movs	r4, #0
 441 004e 00E0     		b	.L22
 442              	.L26:
 157:main.c        ****             ok++;
 443              		.loc 1 157 0
 444 0050 0124     		movs	r4, #1
 445              	.L22:
 446              	.LVL68:
 158:main.c        ****         }
 159:main.c        ****         estado = get_estado(lado2.dir);
 447              		.loc 1 159 0
 448 0052 0B4B     		ldr	r3, .L28+4
 449 0054 1878     		ldrb	r0, [r3]	@ zero_extendqisi2
 450              	.LVL69:
 451 0056 FFF7FEFF 		bl	get_estado
 452              	.LVL70:
ARM GAS  C:\Users\leo40\AppData\Local\Temp\ccRH9XFk.s 			page 12


 160:main.c        ****         if(estado != 0){
 453              		.loc 1 160 0
 454 005a 08B1     		cbz	r0, .L23
 161:main.c        ****             ok++;
 455              		.loc 1 161 0
 456 005c 0134     		adds	r4, r4, #1
 457              	.LVL71:
 458 005e E4B2     		uxtb	r4, r4
 459              	.LVL72:
 460              	.L23:
 162:main.c        ****         }
 163:main.c        ****         if(ok!=2){
 461              		.loc 1 163 0
 462 0060 022C     		cmp	r4, #2
 463 0062 04D0     		beq	.L20
 164:main.c        ****            lado1.dir=0;
 464              		.loc 1 164 0
 465 0064 0023     		movs	r3, #0
 466 0066 054A     		ldr	r2, .L28
 467 0068 1370     		strb	r3, [r2]
 165:main.c        ****            lado2.dir=0; 
 468              		.loc 1 165 0
 469 006a 054A     		ldr	r2, .L28+4
 470 006c 1370     		strb	r3, [r2]
 471              	.LVL73:
 472              	.L20:
 144:main.c        ****         ok=0;
 473              		.loc 1 144 0
 474 006e 022C     		cmp	r4, #2
 475 0070 CCD1     		bne	.L25
 166:main.c        ****         }
 167:main.c        ****     }
 168:main.c        ****     Led_Write(0);
 476              		.loc 1 168 0
 477 0072 0020     		movs	r0, #0
 478 0074 FFF7FEFF 		bl	Led_Write
 479              	.LVL74:
 480 0078 10BD     		pop	{r4, pc}
 481              	.LVL75:
 482              	.L29:
 483 007a 00BF     		.align	2
 484              	.L28:
 485 007c 00000000 		.word	lado1
 486 0080 00000000 		.word	lado2
 487              		.cfi_endproc
 488              	.LFE65:
 489              		.size	init_surtidor, .-init_surtidor
 490              		.section	.text.polling_surtidor,"ax",%progbits
 491              		.align	2
 492              		.global	polling_surtidor
 493              		.thumb
 494              		.thumb_func
 495              		.type	polling_surtidor, %function
 496              	polling_surtidor:
 497              	.LFB66:
 169:main.c        **** }
 170:main.c        **** /*
ARM GAS  C:\Users\leo40\AppData\Local\Temp\ccRH9XFk.s 			page 13


 171:main.c        **** ***************************************************************************************************
 172:main.c        **** *                                        polling_surtidor(uint8 dir, uint8 estado)
 173:main.c        **** *
 174:main.c        **** * Description : Revisa el estado del surtidor.
 175:main.c        **** *               
 176:main.c        **** *
 177:main.c        **** * Argument(s) : dir = Posicion del equipo, estate = estado anterior del equipo
 178:main.c        **** *
 179:main.c        **** * Return(s)   : uint8 con el resultado de la operacion
 180:main.c        **** *
 181:main.c        **** * Caller(s)   : main()
 182:main.c        **** *
 183:main.c        **** * Note(s)     : none.
 184:main.c        **** ***************************************************************************************************
 185:main.c        **** */
 186:main.c        **** uint8 polling_surtidor(uint8 dir, uint8 estate){
 498              		.loc 1 186 0
 499              		.cfi_startproc
 500              		@ args = 0, pretend = 0, frame = 0
 501              		@ frame_needed = 0, uses_anonymous_args = 0
 502              	.LVL76:
 503 0000 38B5     		push	{r3, r4, r5, lr}
 504              		.cfi_def_cfa_offset 16
 505              		.cfi_offset 3, -16
 506              		.cfi_offset 4, -12
 507              		.cfi_offset 5, -8
 508              		.cfi_offset 14, -4
 509 0002 0546     		mov	r5, r0
 510 0004 0C46     		mov	r4, r1
 187:main.c        ****     uint8 estado, producto; 
 188:main.c        ****     estado = get_estado(dir);
 511              		.loc 1 188 0
 512 0006 FFF7FEFF 		bl	get_estado
 513              	.LVL77:
 189:main.c        ****     switch(estado){ 
 514              		.loc 1 189 0
 515 000a 0B28     		cmp	r0, #11
 516 000c 44D8     		bhi	.L42
 517 000e DFE800F0 		tbb	[pc, r0]
 518              	.L33:
 519 0012 08       		.byte	(.L32-.L33)/2
 520 0013 43       		.byte	(.L42-.L33)/2
 521 0014 43       		.byte	(.L42-.L33)/2
 522 0015 43       		.byte	(.L42-.L33)/2
 523 0016 43       		.byte	(.L42-.L33)/2
 524 0017 43       		.byte	(.L42-.L33)/2
 525 0018 0B       		.byte	(.L34-.L33)/2
 526 0019 10       		.byte	(.L35-.L33)/2
 527 001a 06       		.byte	(.L36-.L33)/2
 528 001b 06       		.byte	(.L36-.L33)/2
 529 001c 2F       		.byte	(.L37-.L33)/2
 530 001d 39       		.byte	(.L38-.L33)/2
 531              		.p2align 1
 532              	.L36:
 190:main.c        ****         case 0:                 //error
 191:main.c        ****             estate = (estate & 0x0C);
 192:main.c        ****             return estate;
ARM GAS  C:\Users\leo40\AppData\Local\Temp\ccRH9XFk.s 			page 14


 193:main.c        ****         break;
 194:main.c        ****     
 195:main.c        ****         case 6:                 //Espera
 196:main.c        ****             estate = (estate & 0x0D) | 1;
 197:main.c        ****             return estate;           
 198:main.c        ****         break;
 199:main.c        ****  
 200:main.c        ****         case 7:                 //Listo
 201:main.c        ****             producto = estado_ex (dir);
 202:main.c        ****             if(producto != 0){
 203:main.c        ****                 if(dir == lado1.dir){
 204:main.c        ****                     rventa1.producto = producto;     //ver producto lado1
 205:main.c        ****                 }
 206:main.c        ****                 else{
 207:main.c        ****                     rventa2.producto = producto;     //ver producto lado2
 208:main.c        ****                 }
 209:main.c        ****                 CyDelay(150);
 210:main.c        ****                 Surtidor_PutChar(0x10|dir);
 211:main.c        ****                 return 2;
 212:main.c        ****             }
 213:main.c        ****             CyDelay(150);
 214:main.c        ****             Surtidor_PutChar(0x14);            
 215:main.c        ****         break;
 216:main.c        ****             
 217:main.c        ****         case 8:                 //Autorizado
 218:main.c        ****             return 2;
 533              		.loc 1 218 0
 534 001e 0220     		movs	r0, #2
 535              	.LVL78:
 536 0020 38BD     		pop	{r3, r4, r5, pc}
 537              	.LVL79:
 538              	.L32:
 191:main.c        ****             return estate;
 539              		.loc 1 191 0
 540 0022 04F00C00 		and	r0, r4, #12
 541              	.LVL80:
 192:main.c        ****         break;
 542              		.loc 1 192 0
 543 0026 38BD     		pop	{r3, r4, r5, pc}
 544              	.LVL81:
 545              	.L34:
 196:main.c        ****             return estate;           
 546              		.loc 1 196 0
 547 0028 04F00C00 		and	r0, r4, #12
 548              	.LVL82:
 549 002c 40F00100 		orr	r0, r0, #1
 550              	.LVL83:
 197:main.c        ****         break;
 551              		.loc 1 197 0
 552 0030 38BD     		pop	{r3, r4, r5, pc}
 553              	.LVL84:
 554              	.L35:
 201:main.c        ****             if(producto != 0){
 555              		.loc 1 201 0
 556 0032 2846     		mov	r0, r5
 557              	.LVL85:
 558 0034 FFF7FEFF 		bl	estado_ex
ARM GAS  C:\Users\leo40\AppData\Local\Temp\ccRH9XFk.s 			page 15


 559              	.LVL86:
 202:main.c        ****                 if(dir == lado1.dir){
 560              		.loc 1 202 0
 561 0038 90B1     		cbz	r0, .L39
 203:main.c        ****                     rventa1.producto = producto;     //ver producto lado1
 562              		.loc 1 203 0
 563 003a 1A4B     		ldr	r3, .L46
 564 003c 1B78     		ldrb	r3, [r3]	@ zero_extendqisi2
 565 003e DBB2     		uxtb	r3, r3
 566 0040 9D42     		cmp	r5, r3
 567 0042 02D1     		bne	.L40
 204:main.c        ****                 }
 568              		.loc 1 204 0
 569 0044 184B     		ldr	r3, .L46+4
 570 0046 D876     		strb	r0, [r3, #27]
 571 0048 01E0     		b	.L41
 572              	.L40:
 207:main.c        ****                 }
 573              		.loc 1 207 0
 574 004a 184B     		ldr	r3, .L46+8
 575 004c D876     		strb	r0, [r3, #27]
 576              	.L41:
 209:main.c        ****                 Surtidor_PutChar(0x10|dir);
 577              		.loc 1 209 0
 578 004e 9620     		movs	r0, #150
 579              	.LVL87:
 580 0050 FFF7FEFF 		bl	CyDelay
 581              	.LVL88:
 210:main.c        ****                 return 2;
 582              		.loc 1 210 0
 583 0054 45F01000 		orr	r0, r5, #16
 584 0058 FFF7FEFF 		bl	Surtidor_PutChar
 585              	.LVL89:
 211:main.c        ****             }
 586              		.loc 1 211 0
 587 005c 0220     		movs	r0, #2
 588 005e 38BD     		pop	{r3, r4, r5, pc}
 589              	.LVL90:
 590              	.L39:
 213:main.c        ****             Surtidor_PutChar(0x14);            
 591              		.loc 1 213 0
 592 0060 9620     		movs	r0, #150
 593              	.LVL91:
 594 0062 FFF7FEFF 		bl	CyDelay
 595              	.LVL92:
 214:main.c        ****         break;
 596              		.loc 1 214 0
 597 0066 1420     		movs	r0, #20
 598 0068 FFF7FEFF 		bl	Surtidor_PutChar
 599              	.LVL93:
 219:main.c        ****         break;    
 220:main.c        ****         
 221:main.c        ****         case 9:                 //Surtiendo
 222:main.c        ****             return 2;
 223:main.c        ****         break;
 224:main.c        ****             
 225:main.c        ****         case 0x0A:              //Venta
ARM GAS  C:\Users\leo40\AppData\Local\Temp\ccRH9XFk.s 			page 16


 226:main.c        ****             CyDelay(100);
 227:main.c        ****             if(venta(dir) == 1){
 228:main.c        ****                 return 4;
 229:main.c        ****             }
 230:main.c        ****         break;    
 231:main.c        ****         
 232:main.c        ****         case 0x0B:              //Venta
 233:main.c        ****             CyDelay(100);
 234:main.c        ****             if(venta(dir) == 1){
 235:main.c        ****                 return 4;
 236:main.c        ****             }
 237:main.c        ****         break;         
 238:main.c        ****         
 239:main.c        ****     }
 240:main.c        ****     return 0;
 600              		.loc 1 240 0
 601 006c 0020     		movs	r0, #0
 215:main.c        ****             
 602              		.loc 1 215 0
 603 006e 38BD     		pop	{r3, r4, r5, pc}
 604              	.LVL94:
 605              	.L37:
 226:main.c        ****             if(venta(dir) == 1){
 606              		.loc 1 226 0
 607 0070 6420     		movs	r0, #100
 608              	.LVL95:
 609 0072 FFF7FEFF 		bl	CyDelay
 610              	.LVL96:
 227:main.c        ****                 return 4;
 611              		.loc 1 227 0
 612 0076 2846     		mov	r0, r5
 613 0078 FFF7FEFF 		bl	venta
 614              	.LVL97:
 615 007c 0128     		cmp	r0, #1
 616 007e 0DD1     		bne	.L43
 228:main.c        ****             }
 617              		.loc 1 228 0
 618 0080 0420     		movs	r0, #4
 619 0082 38BD     		pop	{r3, r4, r5, pc}
 620              	.LVL98:
 621              	.L38:
 233:main.c        ****             if(venta(dir) == 1){
 622              		.loc 1 233 0
 623 0084 6420     		movs	r0, #100
 624              	.LVL99:
 625 0086 FFF7FEFF 		bl	CyDelay
 626              	.LVL100:
 234:main.c        ****                 return 4;
 627              		.loc 1 234 0
 628 008a 2846     		mov	r0, r5
 629 008c FFF7FEFF 		bl	venta
 630              	.LVL101:
 631 0090 0128     		cmp	r0, #1
 632 0092 05D1     		bne	.L44
 235:main.c        ****             }
 633              		.loc 1 235 0
 634 0094 0420     		movs	r0, #4
ARM GAS  C:\Users\leo40\AppData\Local\Temp\ccRH9XFk.s 			page 17


 635 0096 38BD     		pop	{r3, r4, r5, pc}
 636              	.LVL102:
 637              	.L42:
 638              		.loc 1 240 0
 639 0098 0020     		movs	r0, #0
 640              	.LVL103:
 641 009a 38BD     		pop	{r3, r4, r5, pc}
 642              	.L43:
 643 009c 0020     		movs	r0, #0
 644 009e 38BD     		pop	{r3, r4, r5, pc}
 645              	.L44:
 646 00a0 0020     		movs	r0, #0
 241:main.c        ****     
 242:main.c        **** }
 647              		.loc 1 242 0
 648 00a2 38BD     		pop	{r3, r4, r5, pc}
 649              	.L47:
 650              		.align	2
 651              	.L46:
 652 00a4 00000000 		.word	lado1
 653 00a8 00000000 		.word	rventa1
 654 00ac 00000000 		.word	rventa2
 655              		.cfi_endproc
 656              	.LFE66:
 657              		.size	polling_surtidor, .-polling_surtidor
 658              		.section	.text.polling_boton,"ax",%progbits
 659              		.align	2
 660              		.global	polling_boton
 661              		.thumb
 662              		.thumb_func
 663              		.type	polling_boton, %function
 664              	polling_boton:
 665              	.LFB67:
 243:main.c        **** /*
 244:main.c        **** ***************************************************************************************************
 245:main.c        **** *                               uint8 polling_boton(uint8 id, uint8 state)
 246:main.c        **** *
 247:main.c        **** * Description : Revisa el estado del surtidor.
 248:main.c        **** *               
 249:main.c        **** *
 250:main.c        **** * Argument(s) : id = numero del boton, state = estado para saber que accion tomar, state
 251:main.c        **** *
 252:main.c        **** * Return(s)   : none
 253:main.c        **** *
 254:main.c        **** * Caller(s)   : main()
 255:main.c        **** *
 256:main.c        **** * Note(s)     : none.
 257:main.c        **** ***************************************************************************************************
 258:main.c        **** */
 259:main.c        **** uint8 polling_boton(uint8 id, uint8 state){
 666              		.loc 1 259 0
 667              		.cfi_startproc
 668              		@ args = 0, pretend = 0, frame = 0
 669              		@ frame_needed = 0, uses_anonymous_args = 0
 670              	.LVL104:
 671 0000 30B5     		push	{r4, r5, lr}
 672              		.cfi_def_cfa_offset 12
ARM GAS  C:\Users\leo40\AppData\Local\Temp\ccRH9XFk.s 			page 18


 673              		.cfi_offset 4, -12
 674              		.cfi_offset 5, -8
 675              		.cfi_offset 14, -4
 676 0002 83B0     		sub	sp, sp, #12
 677              		.cfi_def_cfa_offset 24
 678 0004 0546     		mov	r5, r0
 679 0006 0C46     		mov	r4, r1
 260:main.c        ****     uint8 y;
 261:main.c        ****     y = Botones_Read();
 680              		.loc 1 261 0
 681 0008 FFF7FEFF 		bl	Botones_Read
 682              	.LVL105:
 262:main.c        ****     if((y & id) == 0){                 //Si el boton esta presionado
 683              		.loc 1 262 0
 684 000c 2842     		tst	r0, r5
 685 000e 40F08380 		bne	.L49
 263:main.c        ****         Select0_RS232_Write(0);                    //Selecciono la impresora
 686              		.loc 1 263 0
 687 0012 0020     		movs	r0, #0
 688              	.LVL106:
 689 0014 FFF7FEFF 		bl	Select0_RS232_Write
 690              	.LVL107:
 264:main.c        ****         Select1_RS232_Write(0);
 691              		.loc 1 264 0
 692 0018 0020     		movs	r0, #0
 693 001a FFF7FEFF 		bl	Select1_RS232_Write
 694              	.LVL108:
 265:main.c        ****         switch (state){
 695              		.loc 1 265 0
 696 001e 052C     		cmp	r4, #5
 697 0020 76D8     		bhi	.L59
 698 0022 DFE804F0 		tbb	[pc, r4]
 699              	.L52:
 700 0026 03       		.byte	(.L51-.L52)/2
 701 0027 10       		.byte	(.L53-.L52)/2
 702 0028 1D       		.byte	(.L54-.L52)/2
 703 0029 75       		.byte	(.L59-.L52)/2
 704 002a 2A       		.byte	(.L55-.L52)/2
 705 002b 50       		.byte	(.L56-.L52)/2
 706              		.p2align 1
 707              	.L51:
 266:main.c        ****             case 0:                                     //error
 267:main.c        ****                 RS232_PutString("\n\nNo hay comunicacion con esta posicion.\n\n\n\n\n\n");
 708              		.loc 1 267 0
 709 002c 3C48     		ldr	r0, .L61
 710 002e FFF7FEFF 		bl	RS232_PutString
 711              	.LVL109:
 268:main.c        ****                 RS232_PutChar(0x1D);
 712              		.loc 1 268 0
 713 0032 1D20     		movs	r0, #29
 714 0034 FFF7FEFF 		bl	RS232_PutChar
 715              	.LVL110:
 269:main.c        ****                 RS232_PutChar(0x56);
 716              		.loc 1 269 0
 717 0038 5620     		movs	r0, #86
 718 003a FFF7FEFF 		bl	RS232_PutChar
 719              	.LVL111:
ARM GAS  C:\Users\leo40\AppData\Local\Temp\ccRH9XFk.s 			page 19


 270:main.c        **** 	            RS232_PutChar(0x31);                
 720              		.loc 1 270 0
 721 003e 3120     		movs	r0, #49
 722 0040 FFF7FEFF 		bl	RS232_PutChar
 723              	.LVL112:
 271:main.c        ****             break;
 724              		.loc 1 271 0
 725 0044 64E0     		b	.L59
 726              	.L53:
 272:main.c        ****                 
 273:main.c        ****             case 1:
 274:main.c        ****                 RS232_PutString("\n\nPosicion OK y no hay recibos para imprimir.\n\n\n\n\n\n");
 727              		.loc 1 274 0
 728 0046 3748     		ldr	r0, .L61+4
 729 0048 FFF7FEFF 		bl	RS232_PutString
 730              	.LVL113:
 275:main.c        ****                 RS232_PutChar(0x1D);
 731              		.loc 1 275 0
 732 004c 1D20     		movs	r0, #29
 733 004e FFF7FEFF 		bl	RS232_PutChar
 734              	.LVL114:
 276:main.c        ****                 RS232_PutChar(0x56);
 735              		.loc 1 276 0
 736 0052 5620     		movs	r0, #86
 737 0054 FFF7FEFF 		bl	RS232_PutChar
 738              	.LVL115:
 277:main.c        **** 	            RS232_PutChar(0x31);
 739              		.loc 1 277 0
 740 0058 3120     		movs	r0, #49
 741 005a FFF7FEFF 		bl	RS232_PutChar
 742              	.LVL116:
 278:main.c        ****             break;                
 743              		.loc 1 278 0
 744 005e 57E0     		b	.L59
 745              	.L54:
 279:main.c        ****                 
 280:main.c        ****             case 2:
 281:main.c        ****                 RS232_PutString("\n\nPosicion ocupada.\n\n\n\n\n\n");
 746              		.loc 1 281 0
 747 0060 3148     		ldr	r0, .L61+8
 748 0062 FFF7FEFF 		bl	RS232_PutString
 749              	.LVL117:
 282:main.c        ****                 RS232_PutChar(0x1D);
 750              		.loc 1 282 0
 751 0066 1D20     		movs	r0, #29
 752 0068 FFF7FEFF 		bl	RS232_PutChar
 753              	.LVL118:
 283:main.c        ****                 RS232_PutChar(0x56);
 754              		.loc 1 283 0
 755 006c 5620     		movs	r0, #86
 756 006e FFF7FEFF 		bl	RS232_PutChar
 757              	.LVL119:
 284:main.c        **** 	            RS232_PutChar(0x31);            
 758              		.loc 1 284 0
 759 0072 3120     		movs	r0, #49
 760 0074 FFF7FEFF 		bl	RS232_PutChar
 761              	.LVL120:
ARM GAS  C:\Users\leo40\AppData\Local\Temp\ccRH9XFk.s 			page 20


 285:main.c        ****             break;    
 762              		.loc 1 285 0
 763 0078 4AE0     		b	.L59
 764              	.L55:
 286:main.c        **** 
 287:main.c        ****             case 4:
 288:main.c        ****                 if(id == 1){
 765              		.loc 1 288 0
 766 007a 012D     		cmp	r5, #1
 767 007c 11D1     		bne	.L57
 289:main.c        ****                     imprimir(lado1.dir, lado1.grado[rventa1.producto - 1][0], rventa1.ppu, rventa1.
 768              		.loc 1 289 0
 769 007e 2B49     		ldr	r1, .L61+12
 770 0080 0878     		ldrb	r0, [r1]	@ zero_extendqisi2
 771 0082 2B4A     		ldr	r2, .L61+16
 772 0084 D37E     		ldrb	r3, [r2, #27]	@ zero_extendqisi2
 773 0086 013B     		subs	r3, r3, #1
 774 0088 0B44     		add	r3, r3, r1
 775 008a 93F85810 		ldrb	r1, [r3, #88]	@ zero_extendqisi2
 776 008e 02F10903 		add	r3, r2, #9
 777 0092 0093     		str	r3, [sp]
 778 0094 02F11203 		add	r3, r2, #18
 779 0098 0332     		adds	r2, r2, #3
 780 009a FFF7FEFF 		bl	imprimir
 781              	.LVL121:
 290:main.c        ****                 }
 291:main.c        ****                 else{
 292:main.c        ****                     imprimir(lado2.dir, lado2.grado[rventa2.producto - 1][0], rventa2.ppu, rventa2.
 293:main.c        ****                 }
 294:main.c        ****                 state = 1;
 782              		.loc 1 294 0
 783 009e 0124     		movs	r4, #1
 784 00a0 36E0     		b	.L59
 785              	.L57:
 292:main.c        ****                 }
 786              		.loc 1 292 0
 787 00a2 2449     		ldr	r1, .L61+20
 788 00a4 0878     		ldrb	r0, [r1]	@ zero_extendqisi2
 789 00a6 244A     		ldr	r2, .L61+24
 790 00a8 D37E     		ldrb	r3, [r2, #27]	@ zero_extendqisi2
 791 00aa 013B     		subs	r3, r3, #1
 792 00ac 0B44     		add	r3, r3, r1
 793 00ae 93F85810 		ldrb	r1, [r3, #88]	@ zero_extendqisi2
 794 00b2 02F10903 		add	r3, r2, #9
 795 00b6 0093     		str	r3, [sp]
 796 00b8 02F11203 		add	r3, r2, #18
 797 00bc 0332     		adds	r2, r2, #3
 798 00be FFF7FEFF 		bl	imprimir
 799              	.LVL122:
 800              		.loc 1 294 0
 801 00c2 0124     		movs	r4, #1
 802 00c4 24E0     		b	.L59
 803              	.L56:
 295:main.c        ****             break;
 296:main.c        ****             
 297:main.c        ****             case 5:
 298:main.c        ****                 if(id == 2){
ARM GAS  C:\Users\leo40\AppData\Local\Temp\ccRH9XFk.s 			page 21


 804              		.loc 1 298 0
 805 00c6 022D     		cmp	r5, #2
 806 00c8 11D1     		bne	.L58
 299:main.c        ****                     imprimir(lado1.dir, lado1.grado[rventa1.producto - 1][0], rventa1.ppu, rventa1.
 807              		.loc 1 299 0
 808 00ca 1849     		ldr	r1, .L61+12
 809 00cc 0878     		ldrb	r0, [r1]	@ zero_extendqisi2
 810 00ce 184A     		ldr	r2, .L61+16
 811 00d0 D37E     		ldrb	r3, [r2, #27]	@ zero_extendqisi2
 812 00d2 013B     		subs	r3, r3, #1
 813 00d4 0B44     		add	r3, r3, r1
 814 00d6 93F85810 		ldrb	r1, [r3, #88]	@ zero_extendqisi2
 815 00da 02F10903 		add	r3, r2, #9
 816 00de 0093     		str	r3, [sp]
 817 00e0 02F11203 		add	r3, r2, #18
 818 00e4 0332     		adds	r2, r2, #3
 819 00e6 FFF7FEFF 		bl	imprimir
 820              	.LVL123:
 300:main.c        ****                 }
 301:main.c        ****                 else{
 302:main.c        ****                     imprimir(lado2.dir, lado2.grado[rventa2.producto - 1][0], rventa2.ppu, rventa2.
 303:main.c        ****                 }
 304:main.c        ****                 state = 1;
 821              		.loc 1 304 0
 822 00ea 0124     		movs	r4, #1
 823 00ec 10E0     		b	.L59
 824              	.L58:
 302:main.c        ****                 }
 825              		.loc 1 302 0
 826 00ee 1149     		ldr	r1, .L61+20
 827 00f0 0878     		ldrb	r0, [r1]	@ zero_extendqisi2
 828 00f2 114A     		ldr	r2, .L61+24
 829 00f4 D37E     		ldrb	r3, [r2, #27]	@ zero_extendqisi2
 830 00f6 013B     		subs	r3, r3, #1
 831 00f8 0B44     		add	r3, r3, r1
 832 00fa 93F85810 		ldrb	r1, [r3, #88]	@ zero_extendqisi2
 833 00fe 02F10903 		add	r3, r2, #9
 834 0102 0093     		str	r3, [sp]
 835 0104 02F11203 		add	r3, r2, #18
 836 0108 0332     		adds	r2, r2, #3
 837 010a FFF7FEFF 		bl	imprimir
 838              	.LVL124:
 839              		.loc 1 304 0
 840 010e 0124     		movs	r4, #1
 841              	.LVL125:
 842              	.L59:
 305:main.c        ****             break;
 306:main.c        ****             
 307:main.c        ****         }
 308:main.c        ****         while(Botones_Read()!=3);        
 843              		.loc 1 308 0 discriminator 1
 844 0110 FFF7FEFF 		bl	Botones_Read
 845              	.LVL126:
 846 0114 0328     		cmp	r0, #3
 847 0116 FBD1     		bne	.L59
 848              	.LVL127:
 849              	.L49:
ARM GAS  C:\Users\leo40\AppData\Local\Temp\ccRH9XFk.s 			page 22


 309:main.c        ****     }
 310:main.c        ****     return state;
 311:main.c        **** }
 850              		.loc 1 311 0
 851 0118 2046     		mov	r0, r4
 852 011a 03B0     		add	sp, sp, #12
 853              		.cfi_def_cfa_offset 12
 854              		@ sp needed
 855 011c 30BD     		pop	{r4, r5, pc}
 856              	.LVL128:
 857              	.L62:
 858 011e 00BF     		.align	2
 859              	.L61:
 860 0120 00000000 		.word	.LC0
 861 0124 30000000 		.word	.LC1
 862 0128 64000000 		.word	.LC2
 863 012c 00000000 		.word	lado1
 864 0130 00000000 		.word	rventa1
 865 0134 00000000 		.word	lado2
 866 0138 00000000 		.word	rventa2
 867              		.cfi_endproc
 868              	.LFE67:
 869              		.size	polling_boton, .-polling_boton
 870              		.section	.text.polling_usb,"ax",%progbits
 871              		.align	2
 872              		.global	polling_usb
 873              		.thumb
 874              		.thumb_func
 875              		.type	polling_usb, %function
 876              	polling_usb:
 877              	.LFB68:
 312:main.c        **** 
 313:main.c        **** void polling_usb(void){
 878              		.loc 1 313 0
 879              		.cfi_startproc
 880              		@ args = 0, pretend = 0, frame = 64
 881              		@ frame_needed = 0, uses_anonymous_args = 0
 882 0000 30B5     		push	{r4, r5, lr}
 883              		.cfi_def_cfa_offset 12
 884              		.cfi_offset 4, -12
 885              		.cfi_offset 5, -8
 886              		.cfi_offset 14, -4
 887 0002 91B0     		sub	sp, sp, #68
 888              		.cfi_def_cfa_offset 80
 314:main.c        ****     uint16 count;
 315:main.c        ****     uint8 buffer[BUFFER_LEN], x; 
 316:main.c        ****     if(USBUART_IsConfigurationChanged() != 0u) 
 889              		.loc 1 316 0
 890 0004 FFF7FEFF 		bl	USBUART_IsConfigurationChanged
 891              	.LVL129:
 892 0008 20B1     		cbz	r0, .L64
 317:main.c        ****     {
 318:main.c        ****         if(USBUART_GetConfiguration() != 0u) 
 893              		.loc 1 318 0
 894 000a FFF7FEFF 		bl	USBUART_GetConfiguration
 895              	.LVL130:
 896 000e 08B1     		cbz	r0, .L64
ARM GAS  C:\Users\leo40\AppData\Local\Temp\ccRH9XFk.s 			page 23


 319:main.c        ****         {
 320:main.c        ****             USBUART_CDC_Init();
 897              		.loc 1 320 0
 898 0010 FFF7FEFF 		bl	USBUART_CDC_Init
 899              	.LVL131:
 900              	.L64:
 321:main.c        ****         }
 322:main.c        ****     } 
 323:main.c        ****     if(USBUART_GetConfiguration() != 0u){
 901              		.loc 1 323 0
 902 0014 FFF7FEFF 		bl	USBUART_GetConfiguration
 903              	.LVL132:
 904 0018 0028     		cmp	r0, #0
 905 001a 00F05F82 		beq	.L63
 324:main.c        ****         if(USBUART_DataIsReady() != 0u){
 906              		.loc 1 324 0
 907 001e FFF7FEFF 		bl	USBUART_DataIsReady
 908              	.LVL133:
 909 0022 0028     		cmp	r0, #0
 910 0024 00F05A82 		beq	.L63
 325:main.c        ****             count = USBUART_GetAll(buffer);
 911              		.loc 1 325 0
 912 0028 6846     		mov	r0, sp
 913 002a FFF7FEFF 		bl	USBUART_GetAll
 914              	.LVL134:
 326:main.c        ****             if(count != 0u){
 915              		.loc 1 326 0
 916 002e 0446     		mov	r4, r0
 917 0030 0028     		cmp	r0, #0
 918 0032 00F05382 		beq	.L63
 327:main.c        ****                 Led_Write(1);
 919              		.loc 1 327 0
 920 0036 0120     		movs	r0, #1
 921              	.LVL135:
 922 0038 FFF7FEFF 		bl	Led_Write
 923              	.LVL136:
 924              	.L66:
 328:main.c        ****                 while(USBUART_CDCIsReady() == 0u);
 925              		.loc 1 328 0 discriminator 1
 926 003c FFF7FEFF 		bl	USBUART_CDCIsReady
 927              	.LVL137:
 928 0040 0028     		cmp	r0, #0
 929 0042 FBD0     		beq	.L66
 329:main.c        ****                 if(buffer[count-1] == '*'){    
 930              		.loc 1 329 0
 931 0044 631E     		subs	r3, r4, #1
 932 0046 10AA     		add	r2, sp, #64
 933 0048 1A44     		add	r2, r2, r3
 934 004a 12F8402C 		ldrb	r2, [r2, #-64]	@ zero_extendqisi2
 935 004e 2A2A     		cmp	r2, #42
 936 0050 40F03A82 		bne	.L67
 330:main.c        ****                     switch(buffer[0]){
 937              		.loc 1 330 0
 938 0054 9DF80020 		ldrb	r2, [sp]	@ zero_extendqisi2
 939 0058 303A     		subs	r2, r2, #48
 940 005a 172A     		cmp	r2, #23
 941 005c 00F23482 		bhi	.L67
ARM GAS  C:\Users\leo40\AppData\Local\Temp\ccRH9XFk.s 			page 24


 942 0060 DFE812F0 		tbh	[pc, r2, lsl #1]
 943              	.L69:
 944 0064 1800     		.2byte	(.L68-.L69)/2
 945 0066 1C00     		.2byte	(.L70-.L69)/2
 946 0068 3300     		.2byte	(.L71-.L69)/2
 947 006a 4800     		.2byte	(.L72-.L69)/2
 948 006c 7200     		.2byte	(.L73-.L69)/2
 949 006e 9C00     		.2byte	(.L74-.L69)/2
 950 0070 C600     		.2byte	(.L75-.L69)/2
 951 0072 F000     		.2byte	(.L76-.L69)/2
 952 0074 0701     		.2byte	(.L77-.L69)/2
 953 0076 1E01     		.2byte	(.L78-.L69)/2
 954 0078 3202     		.2byte	(.L67-.L69)/2
 955 007a 3202     		.2byte	(.L67-.L69)/2
 956 007c 3202     		.2byte	(.L67-.L69)/2
 957 007e 3202     		.2byte	(.L67-.L69)/2
 958 0080 3202     		.2byte	(.L67-.L69)/2
 959 0082 3202     		.2byte	(.L67-.L69)/2
 960 0084 3202     		.2byte	(.L67-.L69)/2
 961 0086 3501     		.2byte	(.L79-.L69)/2
 962 0088 4C01     		.2byte	(.L80-.L69)/2
 963 008a 6301     		.2byte	(.L81-.L69)/2
 964 008c 7A01     		.2byte	(.L82-.L69)/2
 965 008e BA01     		.2byte	(.L83-.L69)/2
 966 0090 E401     		.2byte	(.L84-.L69)/2
 967 0092 0E02     		.2byte	(.L85-.L69)/2
 968              		.p2align 1
 969              	.L68:
 331:main.c        ****                         case '0':                               //Prueba de conexion
 332:main.c        ****                             USBUART_PutString("OK");
 970              		.loc 1 332 0
 971 0094 B448     		ldr	r0, .L132
 972 0096 FFF7FEFF 		bl	USBUART_PutString
 973              	.LVL138:
 333:main.c        ****                         break;
 974              		.loc 1 333 0
 975 009a 15E2     		b	.L67
 976              	.L70:
 334:main.c        ****                         
 335:main.c        ****                         case '1':                             //Version
 336:main.c        ****                             if((buffer[2] == '6') || (buffer[2] == '7')){
 977              		.loc 1 336 0
 978 009c 9DF80230 		ldrb	r3, [sp, #2]	@ zero_extendqisi2
 979 00a0 A3F13602 		sub	r2, r3, #54
 980 00a4 D2B2     		uxtb	r2, r2
 981 00a6 012A     		cmp	r2, #1
 982 00a8 0BD8     		bhi	.L86
 337:main.c        ****                                 version = buffer[2] & 0x0F;
 983              		.loc 1 337 0
 984 00aa 03F00F03 		and	r3, r3, #15
 985 00ae AF4D     		ldr	r5, .L132+4
 986 00b0 2B70     		strb	r3, [r5]
 338:main.c        ****                                 USBUART_PutString("OK");
 987              		.loc 1 338 0
 988 00b2 AD48     		ldr	r0, .L132
 989 00b4 FFF7FEFF 		bl	USBUART_PutString
 990              	.LVL139:
ARM GAS  C:\Users\leo40\AppData\Local\Temp\ccRH9XFk.s 			page 25


 339:main.c        ****                                 EEPROM_WriteByte(version,2);
 991              		.loc 1 339 0
 992 00b8 2878     		ldrb	r0, [r5]	@ zero_extendqisi2
 993 00ba 0221     		movs	r1, #2
 994 00bc FFF7FEFF 		bl	EEPROM_WriteByte
 995              	.LVL140:
 996 00c0 02E2     		b	.L67
 997              	.L86:
 340:main.c        ****                             }else{
 341:main.c        ****                                 USBUART_PutString("ERROR");
 998              		.loc 1 341 0
 999 00c2 AB48     		ldr	r0, .L132+8
 1000 00c4 FFF7FEFF 		bl	USBUART_PutString
 1001              	.LVL141:
 1002 00c8 FEE1     		b	.L67
 1003              	.L71:
 342:main.c        ****                             }      
 343:main.c        ****                         break;
 344:main.c        ****                             
 345:main.c        ****                         case '2':                             //PPUX10
 346:main.c        ****                             if((buffer[2] == '1') || (buffer[2] == '0')){
 1004              		.loc 1 346 0
 1005 00ca 9DF80220 		ldrb	r2, [sp, #2]	@ zero_extendqisi2
 1006 00ce A2F13003 		sub	r3, r2, #48
 1007 00d2 DBB2     		uxtb	r3, r3
 1008 00d4 012B     		cmp	r3, #1
 1009 00d6 09D8     		bhi	.L87
 347:main.c        ****                                 ppux10 = buffer[2];
 1010              		.loc 1 347 0
 1011 00d8 A64B     		ldr	r3, .L132+12
 1012 00da 1A70     		strb	r2, [r3]
 348:main.c        ****                                 EEPROM_WriteByte(ppux10,3);
 1013              		.loc 1 348 0
 1014 00dc 1878     		ldrb	r0, [r3]	@ zero_extendqisi2
 1015 00de 0321     		movs	r1, #3
 1016 00e0 FFF7FEFF 		bl	EEPROM_WriteByte
 1017              	.LVL142:
 349:main.c        ****                                 USBUART_PutString("OK");
 1018              		.loc 1 349 0
 1019 00e4 A048     		ldr	r0, .L132
 1020 00e6 FFF7FEFF 		bl	USBUART_PutString
 1021              	.LVL143:
 1022 00ea EDE1     		b	.L67
 1023              	.L87:
 350:main.c        ****                             }else{
 351:main.c        ****                                 USBUART_PutString("ERROR");
 1024              		.loc 1 351 0
 1025 00ec A048     		ldr	r0, .L132+8
 1026 00ee FFF7FEFF 		bl	USBUART_PutString
 1027              	.LVL144:
 1028 00f2 E9E1     		b	.L67
 1029              	.L72:
 352:main.c        ****                             }                        
 353:main.c        ****                         break;
 354:main.c        ****                             
 355:main.c        ****                         case '3':                             //Nombre
 356:main.c        ****                             if(count <= 33){
ARM GAS  C:\Users\leo40\AppData\Local\Temp\ccRH9XFk.s 			page 26


 1030              		.loc 1 356 0
 1031 00f4 212C     		cmp	r4, #33
 1032 00f6 23D8     		bhi	.L88
 357:main.c        ****                                 nombre[0] = count - 3;
 1033              		.loc 1 357 0
 1034 00f8 E21E     		subs	r2, r4, #3
 1035 00fa D2B2     		uxtb	r2, r2
 1036 00fc 9E49     		ldr	r1, .L132+16
 1037 00fe 0A70     		strb	r2, [r1]
 1038              	.LVL145:
 358:main.c        ****                                 for(x=2; x<(count-1); x++){
 1039              		.loc 1 358 0
 1040 0100 0222     		movs	r2, #2
 1041 0102 08E0     		b	.L89
 1042              	.LVL146:
 1043              	.L90:
 359:main.c        ****                                     nombre[x-1] = buffer[x];
 1044              		.loc 1 359 0 discriminator 3
 1045 0104 511E     		subs	r1, r2, #1
 1046 0106 10A8     		add	r0, sp, #64
 1047 0108 1044     		add	r0, r0, r2
 1048 010a 10F8405C 		ldrb	r5, [r0, #-64]	@ zero_extendqisi2
 1049 010e 9A48     		ldr	r0, .L132+16
 1050 0110 4554     		strb	r5, [r0, r1]
 358:main.c        ****                                 for(x=2; x<(count-1); x++){
 1051              		.loc 1 358 0 discriminator 3
 1052 0112 0132     		adds	r2, r2, #1
 1053              	.LVL147:
 1054 0114 D2B2     		uxtb	r2, r2
 1055              	.LVL148:
 1056              	.L89:
 358:main.c        ****                                 for(x=2; x<(count-1); x++){
 1057              		.loc 1 358 0 is_stmt 0 discriminator 1
 1058 0116 9342     		cmp	r3, r2
 1059 0118 F4DC     		bgt	.L90
 1060 011a 0025     		movs	r5, #0
 1061 011c 06E0     		b	.L91
 1062              	.LVL149:
 1063              	.L92:
 360:main.c        ****                                 }
 361:main.c        ****                                 for(x=0; x<=nombre[0]; x++){
 362:main.c        ****                                     EEPROM_WriteByte(nombre[x],(x+4));
 1064              		.loc 1 362 0 is_stmt 1 discriminator 3
 1065 011e 964B     		ldr	r3, .L132+16
 1066 0120 585D     		ldrb	r0, [r3, r5]	@ zero_extendqisi2
 1067 0122 291D     		adds	r1, r5, #4
 1068 0124 FFF7FEFF 		bl	EEPROM_WriteByte
 1069              	.LVL150:
 361:main.c        ****                                     EEPROM_WriteByte(nombre[x],(x+4));
 1070              		.loc 1 361 0 discriminator 3
 1071 0128 0135     		adds	r5, r5, #1
 1072              	.LVL151:
 1073 012a EDB2     		uxtb	r5, r5
 1074              	.LVL152:
 1075              	.L91:
 361:main.c        ****                                     EEPROM_WriteByte(nombre[x],(x+4));
 1076              		.loc 1 361 0 is_stmt 0 discriminator 1
ARM GAS  C:\Users\leo40\AppData\Local\Temp\ccRH9XFk.s 			page 27


 1077 012c 924B     		ldr	r3, .L132+16
 1078 012e 1B78     		ldrb	r3, [r3]	@ zero_extendqisi2
 1079 0130 DBB2     		uxtb	r3, r3
 1080 0132 9D42     		cmp	r5, r3
 1081 0134 F3D9     		bls	.L92
 363:main.c        ****                                 }
 364:main.c        ****                                 USBUART_PutChar(nombre[0]);
 1082              		.loc 1 364 0 is_stmt 1
 1083 0136 904B     		ldr	r3, .L132+16
 1084 0138 1878     		ldrb	r0, [r3]	@ zero_extendqisi2
 1085 013a FFF7FEFF 		bl	USBUART_PutChar
 1086              	.LVL153:
 1087 013e C3E1     		b	.L67
 1088              	.LVL154:
 1089              	.L88:
 365:main.c        ****                             }else{
 366:main.c        ****                                 USBUART_PutString("ERROR");
 1090              		.loc 1 366 0
 1091 0140 8B48     		ldr	r0, .L132+8
 1092 0142 FFF7FEFF 		bl	USBUART_PutString
 1093              	.LVL155:
 1094 0146 BFE1     		b	.L67
 1095              	.L73:
 367:main.c        ****                             }                        
 368:main.c        ****                         break;  
 369:main.c        ****                             
 370:main.c        ****                         case '4':                             //Nit
 371:main.c        ****                             if(count <= 18){
 1096              		.loc 1 371 0
 1097 0148 122C     		cmp	r4, #18
 1098 014a 23D8     		bhi	.L93
 372:main.c        ****                                 nit[0] = count - 3;
 1099              		.loc 1 372 0
 1100 014c E21E     		subs	r2, r4, #3
 1101 014e D2B2     		uxtb	r2, r2
 1102 0150 8A49     		ldr	r1, .L132+20
 1103 0152 0A70     		strb	r2, [r1]
 1104              	.LVL156:
 373:main.c        ****                                 for(x=2; x<(count-1); x++){
 1105              		.loc 1 373 0
 1106 0154 0222     		movs	r2, #2
 1107 0156 08E0     		b	.L94
 1108              	.LVL157:
 1109              	.L95:
 374:main.c        ****                                     nit[x-1] = buffer[x];
 1110              		.loc 1 374 0 discriminator 3
 1111 0158 511E     		subs	r1, r2, #1
 1112 015a 10A8     		add	r0, sp, #64
 1113 015c 1044     		add	r0, r0, r2
 1114 015e 10F8405C 		ldrb	r5, [r0, #-64]	@ zero_extendqisi2
 1115 0162 8648     		ldr	r0, .L132+20
 1116 0164 4554     		strb	r5, [r0, r1]
 373:main.c        ****                                 for(x=2; x<(count-1); x++){
 1117              		.loc 1 373 0 discriminator 3
 1118 0166 0132     		adds	r2, r2, #1
 1119              	.LVL158:
 1120 0168 D2B2     		uxtb	r2, r2
ARM GAS  C:\Users\leo40\AppData\Local\Temp\ccRH9XFk.s 			page 28


 1121              	.LVL159:
 1122              	.L94:
 373:main.c        ****                                 for(x=2; x<(count-1); x++){
 1123              		.loc 1 373 0 is_stmt 0 discriminator 1
 1124 016a 9342     		cmp	r3, r2
 1125 016c F4DC     		bgt	.L95
 1126 016e 0025     		movs	r5, #0
 1127 0170 07E0     		b	.L96
 1128              	.LVL160:
 1129              	.L97:
 375:main.c        ****                                 }
 376:main.c        ****                                 for(x=0; x<=nit[0]; x++){
 377:main.c        ****                                     EEPROM_WriteByte(nit[x],(x+34));
 1130              		.loc 1 377 0 is_stmt 1 discriminator 3
 1131 0172 824B     		ldr	r3, .L132+20
 1132 0174 585D     		ldrb	r0, [r3, r5]	@ zero_extendqisi2
 1133 0176 05F12201 		add	r1, r5, #34
 1134 017a FFF7FEFF 		bl	EEPROM_WriteByte
 1135              	.LVL161:
 376:main.c        ****                                     EEPROM_WriteByte(nit[x],(x+34));
 1136              		.loc 1 376 0 discriminator 3
 1137 017e 0135     		adds	r5, r5, #1
 1138              	.LVL162:
 1139 0180 EDB2     		uxtb	r5, r5
 1140              	.LVL163:
 1141              	.L96:
 376:main.c        ****                                     EEPROM_WriteByte(nit[x],(x+34));
 1142              		.loc 1 376 0 is_stmt 0 discriminator 1
 1143 0182 7E4B     		ldr	r3, .L132+20
 1144 0184 1B78     		ldrb	r3, [r3]	@ zero_extendqisi2
 1145 0186 DBB2     		uxtb	r3, r3
 1146 0188 9D42     		cmp	r5, r3
 1147 018a F2D9     		bls	.L97
 378:main.c        ****                                 }                        
 379:main.c        ****                                 USBUART_PutString("OK");
 1148              		.loc 1 379 0 is_stmt 1
 1149 018c 7648     		ldr	r0, .L132
 1150 018e FFF7FEFF 		bl	USBUART_PutString
 1151              	.LVL164:
 1152 0192 99E1     		b	.L67
 1153              	.LVL165:
 1154              	.L93:
 380:main.c        ****                             }else{
 381:main.c        ****                                 USBUART_PutString("ERROR");
 1155              		.loc 1 381 0
 1156 0194 7648     		ldr	r0, .L132+8
 1157 0196 FFF7FEFF 		bl	USBUART_PutString
 1158              	.LVL166:
 1159 019a 95E1     		b	.L67
 1160              	.L74:
 382:main.c        ****                             }                        
 383:main.c        ****                         break;
 384:main.c        ****                             
 385:main.c        ****                         case '5':                             //Telefono
 386:main.c        ****                             if(count <= 18){
 1161              		.loc 1 386 0
 1162 019c 122C     		cmp	r4, #18
ARM GAS  C:\Users\leo40\AppData\Local\Temp\ccRH9XFk.s 			page 29


 1163 019e 23D8     		bhi	.L98
 387:main.c        ****                                 telefono[0] = count - 3;
 1164              		.loc 1 387 0
 1165 01a0 E21E     		subs	r2, r4, #3
 1166 01a2 D2B2     		uxtb	r2, r2
 1167 01a4 7649     		ldr	r1, .L132+24
 1168 01a6 0A70     		strb	r2, [r1]
 1169              	.LVL167:
 388:main.c        ****                                 for(x=2; x<(count-1); x++){
 1170              		.loc 1 388 0
 1171 01a8 0222     		movs	r2, #2
 1172 01aa 08E0     		b	.L99
 1173              	.LVL168:
 1174              	.L100:
 389:main.c        ****                                     telefono[x-1] = buffer[x];
 1175              		.loc 1 389 0 discriminator 3
 1176 01ac 511E     		subs	r1, r2, #1
 1177 01ae 10A8     		add	r0, sp, #64
 1178 01b0 1044     		add	r0, r0, r2
 1179 01b2 10F8405C 		ldrb	r5, [r0, #-64]	@ zero_extendqisi2
 1180 01b6 7248     		ldr	r0, .L132+24
 1181 01b8 4554     		strb	r5, [r0, r1]
 388:main.c        ****                                 for(x=2; x<(count-1); x++){
 1182              		.loc 1 388 0 discriminator 3
 1183 01ba 0132     		adds	r2, r2, #1
 1184              	.LVL169:
 1185 01bc D2B2     		uxtb	r2, r2
 1186              	.LVL170:
 1187              	.L99:
 388:main.c        ****                                 for(x=2; x<(count-1); x++){
 1188              		.loc 1 388 0 is_stmt 0 discriminator 1
 1189 01be 9342     		cmp	r3, r2
 1190 01c0 F4DC     		bgt	.L100
 1191 01c2 0025     		movs	r5, #0
 1192 01c4 07E0     		b	.L101
 1193              	.LVL171:
 1194              	.L102:
 390:main.c        ****                                 }
 391:main.c        ****                                 for(x=0; x<=telefono[0]; x++){
 392:main.c        ****                                     EEPROM_WriteByte(telefono[x],(x+49));
 1195              		.loc 1 392 0 is_stmt 1 discriminator 3
 1196 01c6 6E4B     		ldr	r3, .L132+24
 1197 01c8 585D     		ldrb	r0, [r3, r5]	@ zero_extendqisi2
 1198 01ca 05F13101 		add	r1, r5, #49
 1199 01ce FFF7FEFF 		bl	EEPROM_WriteByte
 1200              	.LVL172:
 391:main.c        ****                                     EEPROM_WriteByte(telefono[x],(x+49));
 1201              		.loc 1 391 0 discriminator 3
 1202 01d2 0135     		adds	r5, r5, #1
 1203              	.LVL173:
 1204 01d4 EDB2     		uxtb	r5, r5
 1205              	.LVL174:
 1206              	.L101:
 391:main.c        ****                                     EEPROM_WriteByte(telefono[x],(x+49));
 1207              		.loc 1 391 0 is_stmt 0 discriminator 1
 1208 01d6 6A4B     		ldr	r3, .L132+24
 1209 01d8 1B78     		ldrb	r3, [r3]	@ zero_extendqisi2
ARM GAS  C:\Users\leo40\AppData\Local\Temp\ccRH9XFk.s 			page 30


 1210 01da DBB2     		uxtb	r3, r3
 1211 01dc 9D42     		cmp	r5, r3
 1212 01de F2D9     		bls	.L102
 393:main.c        ****                                 }                        
 394:main.c        ****                                 USBUART_PutString("OK");
 1213              		.loc 1 394 0 is_stmt 1
 1214 01e0 6148     		ldr	r0, .L132
 1215 01e2 FFF7FEFF 		bl	USBUART_PutString
 1216              	.LVL175:
 1217 01e6 6FE1     		b	.L67
 1218              	.LVL176:
 1219              	.L98:
 395:main.c        ****                             }else{
 396:main.c        ****                                 USBUART_PutString("ERROR");
 1220              		.loc 1 396 0
 1221 01e8 6148     		ldr	r0, .L132+8
 1222 01ea FFF7FEFF 		bl	USBUART_PutString
 1223              	.LVL177:
 1224 01ee 6BE1     		b	.L67
 1225              	.L75:
 397:main.c        ****                             }                        
 398:main.c        ****                         break;
 399:main.c        ****                             
 400:main.c        ****                         case '6':                             //Direccion
 401:main.c        ****                             if(count <= 33){
 1226              		.loc 1 401 0
 1227 01f0 212C     		cmp	r4, #33
 1228 01f2 23D8     		bhi	.L103
 402:main.c        ****                                 direccion[0] = count - 3;
 1229              		.loc 1 402 0
 1230 01f4 E21E     		subs	r2, r4, #3
 1231 01f6 D2B2     		uxtb	r2, r2
 1232 01f8 6249     		ldr	r1, .L132+28
 1233 01fa 0A70     		strb	r2, [r1]
 1234              	.LVL178:
 403:main.c        ****                                 for(x=2; x<(count-1); x++){
 1235              		.loc 1 403 0
 1236 01fc 0222     		movs	r2, #2
 1237 01fe 08E0     		b	.L104
 1238              	.LVL179:
 1239              	.L105:
 404:main.c        ****                                     direccion[x-1] = buffer[x];
 1240              		.loc 1 404 0 discriminator 3
 1241 0200 511E     		subs	r1, r2, #1
 1242 0202 10A8     		add	r0, sp, #64
 1243 0204 1044     		add	r0, r0, r2
 1244 0206 10F8405C 		ldrb	r5, [r0, #-64]	@ zero_extendqisi2
 1245 020a 5E48     		ldr	r0, .L132+28
 1246 020c 4554     		strb	r5, [r0, r1]
 403:main.c        ****                                 for(x=2; x<(count-1); x++){
 1247              		.loc 1 403 0 discriminator 3
 1248 020e 0132     		adds	r2, r2, #1
 1249              	.LVL180:
 1250 0210 D2B2     		uxtb	r2, r2
 1251              	.LVL181:
 1252              	.L104:
 403:main.c        ****                                 for(x=2; x<(count-1); x++){
ARM GAS  C:\Users\leo40\AppData\Local\Temp\ccRH9XFk.s 			page 31


 1253              		.loc 1 403 0 is_stmt 0 discriminator 1
 1254 0212 9342     		cmp	r3, r2
 1255 0214 F4DC     		bgt	.L105
 1256 0216 0025     		movs	r5, #0
 1257 0218 07E0     		b	.L106
 1258              	.LVL182:
 1259              	.L107:
 405:main.c        ****                                 }
 406:main.c        ****                                 for(x=0; x<=direccion[0]; x++){
 407:main.c        ****                                     EEPROM_WriteByte(direccion[x],(x+64));
 1260              		.loc 1 407 0 is_stmt 1 discriminator 3
 1261 021a 5A4B     		ldr	r3, .L132+28
 1262 021c 585D     		ldrb	r0, [r3, r5]	@ zero_extendqisi2
 1263 021e 05F14001 		add	r1, r5, #64
 1264 0222 FFF7FEFF 		bl	EEPROM_WriteByte
 1265              	.LVL183:
 406:main.c        ****                                     EEPROM_WriteByte(direccion[x],(x+64));
 1266              		.loc 1 406 0 discriminator 3
 1267 0226 0135     		adds	r5, r5, #1
 1268              	.LVL184:
 1269 0228 EDB2     		uxtb	r5, r5
 1270              	.LVL185:
 1271              	.L106:
 406:main.c        ****                                     EEPROM_WriteByte(direccion[x],(x+64));
 1272              		.loc 1 406 0 is_stmt 0 discriminator 1
 1273 022a 564B     		ldr	r3, .L132+28
 1274 022c 1B78     		ldrb	r3, [r3]	@ zero_extendqisi2
 1275 022e DBB2     		uxtb	r3, r3
 1276 0230 9D42     		cmp	r5, r3
 1277 0232 F2D9     		bls	.L107
 408:main.c        ****                                 }                        
 409:main.c        ****                                 USBUART_PutString("OK");
 1278              		.loc 1 409 0 is_stmt 1
 1279 0234 4C48     		ldr	r0, .L132
 1280 0236 FFF7FEFF 		bl	USBUART_PutString
 1281              	.LVL186:
 1282 023a 45E1     		b	.L67
 1283              	.LVL187:
 1284              	.L103:
 410:main.c        ****                             }else{
 411:main.c        ****                                 USBUART_PutString("ERROR");
 1285              		.loc 1 411 0
 1286 023c 4C48     		ldr	r0, .L132+8
 1287 023e FFF7FEFF 		bl	USBUART_PutString
 1288              	.LVL188:
 1289 0242 41E1     		b	.L67
 1290              	.L76:
 412:main.c        ****                             }                        
 413:main.c        ****                         break;
 414:main.c        **** 
 415:main.c        ****                         case '7':                             //Producto Manguera 1 Lado 1
 416:main.c        ****                             if((buffer[2] == '1') || (buffer[2] == '2') || (buffer[2] == '3')){
 1291              		.loc 1 416 0
 1292 0244 9DF80220 		ldrb	r2, [sp, #2]	@ zero_extendqisi2
 1293 0248 A2F13103 		sub	r3, r2, #49
 1294 024c DBB2     		uxtb	r3, r3
 1295 024e 022B     		cmp	r3, #2
ARM GAS  C:\Users\leo40\AppData\Local\Temp\ccRH9XFk.s 			page 32


 1296 0250 0BD8     		bhi	.L108
 417:main.c        ****                                 lado1.grado[0][0] = buffer[2];
 1297              		.loc 1 417 0
 1298 0252 4D4B     		ldr	r3, .L132+32
 1299 0254 83F85820 		strb	r2, [r3, #88]
 418:main.c        ****                                 EEPROM_WriteByte(lado1.grado[0][0],94);
 1300              		.loc 1 418 0
 1301 0258 93F85800 		ldrb	r0, [r3, #88]	@ zero_extendqisi2
 1302 025c 5E21     		movs	r1, #94
 1303 025e FFF7FEFF 		bl	EEPROM_WriteByte
 1304              	.LVL189:
 419:main.c        ****                                 USBUART_PutString("OK");
 1305              		.loc 1 419 0
 1306 0262 4148     		ldr	r0, .L132
 1307 0264 FFF7FEFF 		bl	USBUART_PutString
 1308              	.LVL190:
 1309 0268 2EE1     		b	.L67
 1310              	.L108:
 420:main.c        ****                             }else{
 421:main.c        ****                                 USBUART_PutString("ERROR");
 1311              		.loc 1 421 0
 1312 026a 4148     		ldr	r0, .L132+8
 1313 026c FFF7FEFF 		bl	USBUART_PutString
 1314              	.LVL191:
 1315 0270 2AE1     		b	.L67
 1316              	.L77:
 422:main.c        ****                             }                        
 423:main.c        ****                         break; 
 424:main.c        ****                             
 425:main.c        ****                         case '8':                             //Producto Manguera 2 Lado 1
 426:main.c        ****                             if((buffer[2] == '1') || (buffer[2] == '2') || (buffer[2] == '3')){
 1317              		.loc 1 426 0
 1318 0272 9DF80220 		ldrb	r2, [sp, #2]	@ zero_extendqisi2
 1319 0276 A2F13103 		sub	r3, r2, #49
 1320 027a DBB2     		uxtb	r3, r3
 1321 027c 022B     		cmp	r3, #2
 1322 027e 0BD8     		bhi	.L109
 427:main.c        ****                                 lado1.grado[1][0] = buffer[2];
 1323              		.loc 1 427 0
 1324 0280 414B     		ldr	r3, .L132+32
 1325 0282 83F85920 		strb	r2, [r3, #89]
 428:main.c        ****                                 EEPROM_WriteByte(lado1.grado[1][0],95);
 1326              		.loc 1 428 0
 1327 0286 93F85900 		ldrb	r0, [r3, #89]	@ zero_extendqisi2
 1328 028a 5F21     		movs	r1, #95
 1329 028c FFF7FEFF 		bl	EEPROM_WriteByte
 1330              	.LVL192:
 429:main.c        ****                                 USBUART_PutString("OK");
 1331              		.loc 1 429 0
 1332 0290 3548     		ldr	r0, .L132
 1333 0292 FFF7FEFF 		bl	USBUART_PutString
 1334              	.LVL193:
 1335 0296 17E1     		b	.L67
 1336              	.L109:
 430:main.c        ****                             }else{
 431:main.c        ****                                 USBUART_PutString("ERROR");
 1337              		.loc 1 431 0
ARM GAS  C:\Users\leo40\AppData\Local\Temp\ccRH9XFk.s 			page 33


 1338 0298 3548     		ldr	r0, .L132+8
 1339 029a FFF7FEFF 		bl	USBUART_PutString
 1340              	.LVL194:
 1341 029e 13E1     		b	.L67
 1342              	.L78:
 432:main.c        ****                             }                        
 433:main.c        ****                         break; 
 434:main.c        ****                             
 435:main.c        ****                         case '9':                             //Producto Manguera 3 Lado 1
 436:main.c        ****                             if((buffer[2] == '1') || (buffer[2] == '2') || (buffer[2] == '3')){
 1343              		.loc 1 436 0
 1344 02a0 9DF80220 		ldrb	r2, [sp, #2]	@ zero_extendqisi2
 1345 02a4 A2F13103 		sub	r3, r2, #49
 1346 02a8 DBB2     		uxtb	r3, r3
 1347 02aa 022B     		cmp	r3, #2
 1348 02ac 0BD8     		bhi	.L110
 437:main.c        ****                                 lado1.grado[2][0] = buffer[2];
 1349              		.loc 1 437 0
 1350 02ae 364B     		ldr	r3, .L132+32
 1351 02b0 83F85A20 		strb	r2, [r3, #90]
 438:main.c        ****                                 EEPROM_WriteByte(lado1.grado[2][0],96);
 1352              		.loc 1 438 0
 1353 02b4 93F85A00 		ldrb	r0, [r3, #90]	@ zero_extendqisi2
 1354 02b8 6021     		movs	r1, #96
 1355 02ba FFF7FEFF 		bl	EEPROM_WriteByte
 1356              	.LVL195:
 439:main.c        ****                                 USBUART_PutString("OK");
 1357              		.loc 1 439 0
 1358 02be 2A48     		ldr	r0, .L132
 1359 02c0 FFF7FEFF 		bl	USBUART_PutString
 1360              	.LVL196:
 1361 02c4 00E1     		b	.L67
 1362              	.L110:
 440:main.c        ****                             }else{
 441:main.c        ****                                 USBUART_PutString("ERROR");
 1363              		.loc 1 441 0
 1364 02c6 2A48     		ldr	r0, .L132+8
 1365 02c8 FFF7FEFF 		bl	USBUART_PutString
 1366              	.LVL197:
 1367 02cc FCE0     		b	.L67
 1368              	.L79:
 442:main.c        ****                             }                        
 443:main.c        ****                         break;  
 444:main.c        ****                             
 445:main.c        ****                         case 'A':                            //Producto Manguera 1 Lado 2
 446:main.c        ****                             if((buffer[2] == '1') || (buffer[2] == '2') || (buffer[2] == '3')){
 1369              		.loc 1 446 0
 1370 02ce 9DF80220 		ldrb	r2, [sp, #2]	@ zero_extendqisi2
 1371 02d2 A2F13103 		sub	r3, r2, #49
 1372 02d6 DBB2     		uxtb	r3, r3
 1373 02d8 022B     		cmp	r3, #2
 1374 02da 0BD8     		bhi	.L111
 447:main.c        ****                                 lado2.grado[0][0] = buffer[2];
 1375              		.loc 1 447 0
 1376 02dc 2B4B     		ldr	r3, .L132+36
 1377 02de 83F85820 		strb	r2, [r3, #88]
 448:main.c        ****                                 EEPROM_WriteByte(lado2.grado[0][0],142);
ARM GAS  C:\Users\leo40\AppData\Local\Temp\ccRH9XFk.s 			page 34


 1378              		.loc 1 448 0
 1379 02e2 93F85800 		ldrb	r0, [r3, #88]	@ zero_extendqisi2
 1380 02e6 8E21     		movs	r1, #142
 1381 02e8 FFF7FEFF 		bl	EEPROM_WriteByte
 1382              	.LVL198:
 449:main.c        ****                                 USBUART_PutString("OK");
 1383              		.loc 1 449 0
 1384 02ec 1E48     		ldr	r0, .L132
 1385 02ee FFF7FEFF 		bl	USBUART_PutString
 1386              	.LVL199:
 1387 02f2 E9E0     		b	.L67
 1388              	.L111:
 450:main.c        ****                             }else{
 451:main.c        ****                                 USBUART_PutString("ERROR");
 1389              		.loc 1 451 0
 1390 02f4 1E48     		ldr	r0, .L132+8
 1391 02f6 FFF7FEFF 		bl	USBUART_PutString
 1392              	.LVL200:
 1393 02fa E5E0     		b	.L67
 1394              	.L80:
 452:main.c        ****                             }                        
 453:main.c        ****                         break; 
 454:main.c        ****                             
 455:main.c        ****                         case 'B':                            //Producto Manguera 2 Lado 2
 456:main.c        ****                             if((buffer[2] == '1') || (buffer[2] == '2') || (buffer[2] == '3')){
 1395              		.loc 1 456 0
 1396 02fc 9DF80220 		ldrb	r2, [sp, #2]	@ zero_extendqisi2
 1397 0300 A2F13103 		sub	r3, r2, #49
 1398 0304 DBB2     		uxtb	r3, r3
 1399 0306 022B     		cmp	r3, #2
 1400 0308 0BD8     		bhi	.L112
 457:main.c        ****                                 lado2.grado[1][0] = buffer[2];
 1401              		.loc 1 457 0
 1402 030a 204B     		ldr	r3, .L132+36
 1403 030c 83F85920 		strb	r2, [r3, #89]
 458:main.c        ****                                 EEPROM_WriteByte(lado2.grado[1][0],143);
 1404              		.loc 1 458 0
 1405 0310 93F85900 		ldrb	r0, [r3, #89]	@ zero_extendqisi2
 1406 0314 8F21     		movs	r1, #143
 1407 0316 FFF7FEFF 		bl	EEPROM_WriteByte
 1408              	.LVL201:
 459:main.c        ****                                 USBUART_PutString("OK");
 1409              		.loc 1 459 0
 1410 031a 1348     		ldr	r0, .L132
 1411 031c FFF7FEFF 		bl	USBUART_PutString
 1412              	.LVL202:
 1413 0320 D2E0     		b	.L67
 1414              	.L112:
 460:main.c        ****                             }else{
 461:main.c        ****                                 USBUART_PutString("ERROR");
 1415              		.loc 1 461 0
 1416 0322 1348     		ldr	r0, .L132+8
 1417 0324 FFF7FEFF 		bl	USBUART_PutString
 1418              	.LVL203:
 1419 0328 CEE0     		b	.L67
 1420              	.L81:
 462:main.c        ****                             }                        
ARM GAS  C:\Users\leo40\AppData\Local\Temp\ccRH9XFk.s 			page 35


 463:main.c        ****                         break;
 464:main.c        ****                             
 465:main.c        ****                         case 'C':                            //Producto Manguera 3 Lado 2
 466:main.c        ****                             if((buffer[2] == '1') || (buffer[2] == '2') || (buffer[2] == '3')){
 1421              		.loc 1 466 0
 1422 032a 9DF80220 		ldrb	r2, [sp, #2]	@ zero_extendqisi2
 1423 032e A2F13103 		sub	r3, r2, #49
 1424 0332 DBB2     		uxtb	r3, r3
 1425 0334 022B     		cmp	r3, #2
 1426 0336 0BD8     		bhi	.L113
 467:main.c        ****                                 lado2.grado[2][0] = buffer[2];
 1427              		.loc 1 467 0
 1428 0338 144B     		ldr	r3, .L132+36
 1429 033a 83F85A20 		strb	r2, [r3, #90]
 468:main.c        ****                                 EEPROM_WriteByte(lado2.grado[2][0],144);
 1430              		.loc 1 468 0
 1431 033e 93F85A00 		ldrb	r0, [r3, #90]	@ zero_extendqisi2
 1432 0342 9021     		movs	r1, #144
 1433 0344 FFF7FEFF 		bl	EEPROM_WriteByte
 1434              	.LVL204:
 469:main.c        ****                                 USBUART_PutString("OK");
 1435              		.loc 1 469 0
 1436 0348 0748     		ldr	r0, .L132
 1437 034a FFF7FEFF 		bl	USBUART_PutString
 1438              	.LVL205:
 1439 034e BBE0     		b	.L67
 1440              	.L113:
 470:main.c        ****                             }else{
 471:main.c        ****                                 USBUART_PutString("ERROR");
 1441              		.loc 1 471 0
 1442 0350 0748     		ldr	r0, .L132+8
 1443 0352 FFF7FEFF 		bl	USBUART_PutString
 1444              	.LVL206:
 1445 0356 B7E0     		b	.L67
 1446              	.L82:
 472:main.c        ****                             }                        
 473:main.c        ****                         break;
 474:main.c        ****                         
 475:main.c        ****                         case 'D':                             //Nombre Producto 1
 476:main.c        ****                             if(count <= 18){
 1447              		.loc 1 476 0
 1448 0358 122C     		cmp	r4, #18
 1449 035a 39D8     		bhi	.L114
 477:main.c        ****                                 nombre_pro1[0] = count - 3;
 1450              		.loc 1 477 0
 1451 035c E21E     		subs	r2, r4, #3
 1452 035e D2B2     		uxtb	r2, r2
 1453 0360 0B49     		ldr	r1, .L132+40
 1454 0362 0A70     		strb	r2, [r1]
 1455              	.LVL207:
 478:main.c        ****                                 for(x=2; x<(count-1); x++){
 1456              		.loc 1 478 0
 1457 0364 0222     		movs	r2, #2
 1458 0366 1EE0     		b	.L115
 1459              	.L133:
 1460              		.align	2
 1461              	.L132:
ARM GAS  C:\Users\leo40\AppData\Local\Temp\ccRH9XFk.s 			page 36


 1462 0368 80000000 		.word	.LC3
 1463 036c 00000000 		.word	version
 1464 0370 84000000 		.word	.LC4
 1465 0374 00000000 		.word	ppux10
 1466 0378 00000000 		.word	nombre
 1467 037c 00000000 		.word	nit
 1468 0380 00000000 		.word	telefono
 1469 0384 00000000 		.word	direccion
 1470 0388 00000000 		.word	lado1
 1471 038c 00000000 		.word	lado2
 1472 0390 00000000 		.word	nombre_pro1
 1473              	.LVL208:
 1474              	.L116:
 479:main.c        ****                                     nombre_pro1[x-1] = buffer[x];
 1475              		.loc 1 479 0 discriminator 3
 1476 0394 511E     		subs	r1, r2, #1
 1477 0396 10A8     		add	r0, sp, #64
 1478 0398 1044     		add	r0, r0, r2
 1479 039a 10F8405C 		ldrb	r5, [r0, #-64]	@ zero_extendqisi2
 1480 039e 5048     		ldr	r0, .L134
 1481 03a0 4554     		strb	r5, [r0, r1]
 478:main.c        ****                                 for(x=2; x<(count-1); x++){
 1482              		.loc 1 478 0 discriminator 3
 1483 03a2 0132     		adds	r2, r2, #1
 1484              	.LVL209:
 1485 03a4 D2B2     		uxtb	r2, r2
 1486              	.LVL210:
 1487              	.L115:
 478:main.c        ****                                 for(x=2; x<(count-1); x++){
 1488              		.loc 1 478 0 is_stmt 0 discriminator 1
 1489 03a6 9342     		cmp	r3, r2
 1490 03a8 F4DC     		bgt	.L116
 1491 03aa 0025     		movs	r5, #0
 1492 03ac 07E0     		b	.L117
 1493              	.LVL211:
 1494              	.L118:
 480:main.c        ****                                 }
 481:main.c        ****                                 for(x=0; x<=nit[0]; x++){
 482:main.c        ****                                     EEPROM_WriteByte(nombre_pro1[x],(x+97));
 1495              		.loc 1 482 0 is_stmt 1 discriminator 3
 1496 03ae 4C4B     		ldr	r3, .L134
 1497 03b0 585D     		ldrb	r0, [r3, r5]	@ zero_extendqisi2
 1498 03b2 05F16101 		add	r1, r5, #97
 1499 03b6 FFF7FEFF 		bl	EEPROM_WriteByte
 1500              	.LVL212:
 481:main.c        ****                                     EEPROM_WriteByte(nombre_pro1[x],(x+97));
 1501              		.loc 1 481 0 discriminator 3
 1502 03ba 0135     		adds	r5, r5, #1
 1503              	.LVL213:
 1504 03bc EDB2     		uxtb	r5, r5
 1505              	.LVL214:
 1506              	.L117:
 481:main.c        ****                                     EEPROM_WriteByte(nombre_pro1[x],(x+97));
 1507              		.loc 1 481 0 is_stmt 0 discriminator 1
 1508 03be 494B     		ldr	r3, .L134+4
 1509 03c0 1B78     		ldrb	r3, [r3]	@ zero_extendqisi2
 1510 03c2 DBB2     		uxtb	r3, r3
ARM GAS  C:\Users\leo40\AppData\Local\Temp\ccRH9XFk.s 			page 37


 1511 03c4 9D42     		cmp	r5, r3
 1512 03c6 F2D9     		bls	.L118
 483:main.c        ****                                 }                        
 484:main.c        ****                                 USBUART_PutString("OK");
 1513              		.loc 1 484 0 is_stmt 1
 1514 03c8 4748     		ldr	r0, .L134+8
 1515 03ca FFF7FEFF 		bl	USBUART_PutString
 1516              	.LVL215:
 1517 03ce 7BE0     		b	.L67
 1518              	.LVL216:
 1519              	.L114:
 485:main.c        ****                             }else{
 486:main.c        ****                                 USBUART_PutString("ERROR");
 1520              		.loc 1 486 0
 1521 03d0 4648     		ldr	r0, .L134+12
 1522 03d2 FFF7FEFF 		bl	USBUART_PutString
 1523              	.LVL217:
 1524 03d6 77E0     		b	.L67
 1525              	.L83:
 487:main.c        ****                             }                        
 488:main.c        ****                         break; 
 489:main.c        ****                             
 490:main.c        ****                         case 'E':                             //Nombre Producto 2
 491:main.c        ****                             if(count <= 18){
 1526              		.loc 1 491 0
 1527 03d8 122C     		cmp	r4, #18
 1528 03da 23D8     		bhi	.L119
 492:main.c        ****                                 nombre_pro2[0] = count - 3;
 1529              		.loc 1 492 0
 1530 03dc E21E     		subs	r2, r4, #3
 1531 03de D2B2     		uxtb	r2, r2
 1532 03e0 4349     		ldr	r1, .L134+16
 1533 03e2 0A70     		strb	r2, [r1]
 1534              	.LVL218:
 493:main.c        ****                                 for(x=2; x<(count-1); x++){
 1535              		.loc 1 493 0
 1536 03e4 0222     		movs	r2, #2
 1537 03e6 08E0     		b	.L120
 1538              	.LVL219:
 1539              	.L121:
 494:main.c        ****                                     nombre_pro2[x-1] = buffer[x];
 1540              		.loc 1 494 0 discriminator 3
 1541 03e8 511E     		subs	r1, r2, #1
 1542 03ea 10A8     		add	r0, sp, #64
 1543 03ec 1044     		add	r0, r0, r2
 1544 03ee 10F8405C 		ldrb	r5, [r0, #-64]	@ zero_extendqisi2
 1545 03f2 3F48     		ldr	r0, .L134+16
 1546 03f4 4554     		strb	r5, [r0, r1]
 493:main.c        ****                                 for(x=2; x<(count-1); x++){
 1547              		.loc 1 493 0 discriminator 3
 1548 03f6 0132     		adds	r2, r2, #1
 1549              	.LVL220:
 1550 03f8 D2B2     		uxtb	r2, r2
 1551              	.LVL221:
 1552              	.L120:
 493:main.c        ****                                 for(x=2; x<(count-1); x++){
 1553              		.loc 1 493 0 is_stmt 0 discriminator 1
ARM GAS  C:\Users\leo40\AppData\Local\Temp\ccRH9XFk.s 			page 38


 1554 03fa 9342     		cmp	r3, r2
 1555 03fc F4DC     		bgt	.L121
 1556 03fe 0025     		movs	r5, #0
 1557 0400 07E0     		b	.L122
 1558              	.LVL222:
 1559              	.L123:
 495:main.c        ****                                 }
 496:main.c        ****                                 for(x=0; x<=nit[0]; x++){
 497:main.c        ****                                     EEPROM_WriteByte(nombre_pro2[x],(x+112));
 1560              		.loc 1 497 0 is_stmt 1 discriminator 3
 1561 0402 3B4B     		ldr	r3, .L134+16
 1562 0404 585D     		ldrb	r0, [r3, r5]	@ zero_extendqisi2
 1563 0406 05F17001 		add	r1, r5, #112
 1564 040a FFF7FEFF 		bl	EEPROM_WriteByte
 1565              	.LVL223:
 496:main.c        ****                                     EEPROM_WriteByte(nombre_pro2[x],(x+112));
 1566              		.loc 1 496 0 discriminator 3
 1567 040e 0135     		adds	r5, r5, #1
 1568              	.LVL224:
 1569 0410 EDB2     		uxtb	r5, r5
 1570              	.LVL225:
 1571              	.L122:
 496:main.c        ****                                     EEPROM_WriteByte(nombre_pro2[x],(x+112));
 1572              		.loc 1 496 0 is_stmt 0 discriminator 1
 1573 0412 344B     		ldr	r3, .L134+4
 1574 0414 1B78     		ldrb	r3, [r3]	@ zero_extendqisi2
 1575 0416 DBB2     		uxtb	r3, r3
 1576 0418 9D42     		cmp	r5, r3
 1577 041a F2D9     		bls	.L123
 498:main.c        ****                                 }                        
 499:main.c        ****                                 USBUART_PutString("OK");
 1578              		.loc 1 499 0 is_stmt 1
 1579 041c 3248     		ldr	r0, .L134+8
 1580 041e FFF7FEFF 		bl	USBUART_PutString
 1581              	.LVL226:
 1582 0422 51E0     		b	.L67
 1583              	.LVL227:
 1584              	.L119:
 500:main.c        ****                             }else{
 501:main.c        ****                                 USBUART_PutString("ERROR");
 1585              		.loc 1 501 0
 1586 0424 3148     		ldr	r0, .L134+12
 1587 0426 FFF7FEFF 		bl	USBUART_PutString
 1588              	.LVL228:
 1589 042a 4DE0     		b	.L67
 1590              	.L84:
 502:main.c        ****                             }                        
 503:main.c        ****                         break; 
 504:main.c        ****                             
 505:main.c        ****                         case 'F':                             //Nombre Producto 3
 506:main.c        ****                             if(count <= 18){
 1591              		.loc 1 506 0
 1592 042c 122C     		cmp	r4, #18
 1593 042e 23D8     		bhi	.L124
 507:main.c        ****                                 nombre_pro3[0] = count - 3;
 1594              		.loc 1 507 0
 1595 0430 E21E     		subs	r2, r4, #3
ARM GAS  C:\Users\leo40\AppData\Local\Temp\ccRH9XFk.s 			page 39


 1596 0432 D2B2     		uxtb	r2, r2
 1597 0434 2F49     		ldr	r1, .L134+20
 1598 0436 0A70     		strb	r2, [r1]
 1599              	.LVL229:
 508:main.c        ****                                 for(x=2; x<(count-1); x++){
 1600              		.loc 1 508 0
 1601 0438 0222     		movs	r2, #2
 1602 043a 08E0     		b	.L125
 1603              	.LVL230:
 1604              	.L126:
 509:main.c        ****                                     nombre_pro3[x-1] = buffer[x];
 1605              		.loc 1 509 0 discriminator 3
 1606 043c 511E     		subs	r1, r2, #1
 1607 043e 10A8     		add	r0, sp, #64
 1608 0440 1044     		add	r0, r0, r2
 1609 0442 10F8405C 		ldrb	r5, [r0, #-64]	@ zero_extendqisi2
 1610 0446 2B48     		ldr	r0, .L134+20
 1611 0448 4554     		strb	r5, [r0, r1]
 508:main.c        ****                                 for(x=2; x<(count-1); x++){
 1612              		.loc 1 508 0 discriminator 3
 1613 044a 0132     		adds	r2, r2, #1
 1614              	.LVL231:
 1615 044c D2B2     		uxtb	r2, r2
 1616              	.LVL232:
 1617              	.L125:
 508:main.c        ****                                 for(x=2; x<(count-1); x++){
 1618              		.loc 1 508 0 is_stmt 0 discriminator 1
 1619 044e 9342     		cmp	r3, r2
 1620 0450 F4DC     		bgt	.L126
 1621 0452 0025     		movs	r5, #0
 1622 0454 07E0     		b	.L127
 1623              	.LVL233:
 1624              	.L128:
 510:main.c        ****                                 }
 511:main.c        ****                                 for(x=0; x<=nit[0]; x++){
 512:main.c        ****                                     EEPROM_WriteByte(nombre_pro3[x],(x+127));
 1625              		.loc 1 512 0 is_stmt 1 discriminator 3
 1626 0456 274B     		ldr	r3, .L134+20
 1627 0458 585D     		ldrb	r0, [r3, r5]	@ zero_extendqisi2
 1628 045a 05F17F01 		add	r1, r5, #127
 1629 045e FFF7FEFF 		bl	EEPROM_WriteByte
 1630              	.LVL234:
 511:main.c        ****                                     EEPROM_WriteByte(nombre_pro3[x],(x+127));
 1631              		.loc 1 511 0 discriminator 3
 1632 0462 0135     		adds	r5, r5, #1
 1633              	.LVL235:
 1634 0464 EDB2     		uxtb	r5, r5
 1635              	.LVL236:
 1636              	.L127:
 511:main.c        ****                                     EEPROM_WriteByte(nombre_pro3[x],(x+127));
 1637              		.loc 1 511 0 is_stmt 0 discriminator 1
 1638 0466 1F4B     		ldr	r3, .L134+4
 1639 0468 1B78     		ldrb	r3, [r3]	@ zero_extendqisi2
 1640 046a DBB2     		uxtb	r3, r3
 1641 046c 9D42     		cmp	r5, r3
 1642 046e F2D9     		bls	.L128
 513:main.c        ****                                 }                        
ARM GAS  C:\Users\leo40\AppData\Local\Temp\ccRH9XFk.s 			page 40


 514:main.c        ****                                 USBUART_PutString("OK");
 1643              		.loc 1 514 0 is_stmt 1
 1644 0470 1D48     		ldr	r0, .L134+8
 1645 0472 FFF7FEFF 		bl	USBUART_PutString
 1646              	.LVL237:
 1647 0476 27E0     		b	.L67
 1648              	.LVL238:
 1649              	.L124:
 515:main.c        ****                             }else{
 516:main.c        ****                                 USBUART_PutString("ERROR");
 1650              		.loc 1 516 0
 1651 0478 1C48     		ldr	r0, .L134+12
 1652 047a FFF7FEFF 		bl	USBUART_PutString
 1653              	.LVL239:
 1654 047e 23E0     		b	.L67
 1655              	.L85:
 517:main.c        ****                             }                        
 518:main.c        ****                         break;  
 519:main.c        ****                             
 520:main.c        ****                         case 'G':                            //Hora y Fecha
 521:main.c        ****                             if((buffer[2] <= 0x59) && (buffer[3] <= 0x23) && (buffer[4] <= 0x31) &&
 1656              		.loc 1 521 0
 1657 0480 9DF80250 		ldrb	r5, [sp, #2]	@ zero_extendqisi2
 1658 0484 592D     		cmp	r5, #89
 1659 0486 1CD8     		bhi	.L129
 1660              		.loc 1 521 0 is_stmt 0 discriminator 1
 1661 0488 9DF80300 		ldrb	r0, [sp, #3]	@ zero_extendqisi2
 1662 048c 2328     		cmp	r0, #35
 1663 048e 18D8     		bhi	.L129
 1664              		.loc 1 521 0 discriminator 2
 1665 0490 9DF80410 		ldrb	r1, [sp, #4]	@ zero_extendqisi2
 1666 0494 3129     		cmp	r1, #49
 1667 0496 14D8     		bhi	.L129
 1668              		.loc 1 521 0 discriminator 3
 1669 0498 9DF80520 		ldrb	r2, [sp, #5]	@ zero_extendqisi2
 1670 049c 122A     		cmp	r2, #18
 1671 049e 10D8     		bhi	.L129
 522:main.c        ****                                 hora[0] = buffer[2];
 1672              		.loc 1 522 0 is_stmt 1
 1673 04a0 154B     		ldr	r3, .L134+24
 1674 04a2 1D70     		strb	r5, [r3]
 523:main.c        ****                                 hora[1] = buffer[3];
 1675              		.loc 1 523 0
 1676 04a4 5870     		strb	r0, [r3, #1]
 524:main.c        ****                                 fecha[0] = buffer[4];
 1677              		.loc 1 524 0
 1678 04a6 154B     		ldr	r3, .L134+28
 1679 04a8 1970     		strb	r1, [r3]
 525:main.c        ****                                 fecha[1] = buffer[5];
 1680              		.loc 1 525 0
 1681 04aa 5A70     		strb	r2, [r3, #1]
 526:main.c        ****                                 fecha[2] = buffer[6];
 1682              		.loc 1 526 0
 1683 04ac 9DF80620 		ldrb	r2, [sp, #6]	@ zero_extendqisi2
 1684 04b0 9A70     		strb	r2, [r3, #2]
 527:main.c        ****                                 write_hora();
 1685              		.loc 1 527 0
ARM GAS  C:\Users\leo40\AppData\Local\Temp\ccRH9XFk.s 			page 41


 1686 04b2 FFF7FEFF 		bl	write_hora
 1687              	.LVL240:
 528:main.c        ****                                 write_fecha();
 1688              		.loc 1 528 0
 1689 04b6 FFF7FEFF 		bl	write_fecha
 1690              	.LVL241:
 529:main.c        ****                                 USBUART_PutString("OK");
 1691              		.loc 1 529 0
 1692 04ba 0B48     		ldr	r0, .L134+8
 1693 04bc FFF7FEFF 		bl	USBUART_PutString
 1694              	.LVL242:
 1695 04c0 02E0     		b	.L67
 1696              	.L129:
 530:main.c        ****                             }else{
 531:main.c        ****                                 USBUART_PutString("ERROR");
 1697              		.loc 1 531 0
 1698 04c2 0A48     		ldr	r0, .L134+12
 1699 04c4 FFF7FEFF 		bl	USBUART_PutString
 1700              	.LVL243:
 1701              	.L67:
 532:main.c        ****                             }                        
 533:main.c        ****                         break;                    
 534:main.c        ****                             
 535:main.c        ****                     }
 536:main.c        ****                 }
 537:main.c        ****                 if(count == BUFFER_LEN)
 1702              		.loc 1 537 0
 1703 04c8 402C     		cmp	r4, #64
 1704 04ca 07D1     		bne	.L63
 1705              	.L130:
 538:main.c        ****                 {
 539:main.c        ****                     while(USBUART_CDCIsReady() == 0u); 
 1706              		.loc 1 539 0 discriminator 1
 1707 04cc FFF7FEFF 		bl	USBUART_CDCIsReady
 1708              	.LVL244:
 1709 04d0 0028     		cmp	r0, #0
 1710 04d2 FBD0     		beq	.L130
 540:main.c        ****                     USBUART_PutData(NULL, 0u);         
 1711              		.loc 1 540 0
 1712 04d4 0021     		movs	r1, #0
 1713 04d6 0846     		mov	r0, r1
 1714 04d8 FFF7FEFF 		bl	USBUART_PutData
 1715              	.LVL245:
 1716              	.L63:
 541:main.c        ****                 }                
 542:main.c        ****             }    
 543:main.c        ****         }
 544:main.c        ****     }
 545:main.c        **** }
 1717              		.loc 1 545 0
 1718 04dc 11B0     		add	sp, sp, #68
 1719              		.cfi_def_cfa_offset 12
 1720              		@ sp needed
 1721 04de 30BD     		pop	{r4, r5, pc}
 1722              	.L135:
 1723              		.align	2
 1724              	.L134:
ARM GAS  C:\Users\leo40\AppData\Local\Temp\ccRH9XFk.s 			page 42


 1725 04e0 00000000 		.word	nombre_pro1
 1726 04e4 00000000 		.word	nit
 1727 04e8 80000000 		.word	.LC3
 1728 04ec 84000000 		.word	.LC4
 1729 04f0 00000000 		.word	nombre_pro2
 1730 04f4 00000000 		.word	nombre_pro3
 1731 04f8 00000000 		.word	hora
 1732 04fc 00000000 		.word	fecha
 1733              		.cfi_endproc
 1734              	.LFE68:
 1735              		.size	polling_usb, .-polling_usb
 1736              		.section	.text.main,"ax",%progbits
 1737              		.align	2
 1738              		.global	main
 1739              		.thumb
 1740              		.thumb_func
 1741              		.type	main, %function
 1742              	main:
 1743              	.LFB69:
 546:main.c        **** 
 547:main.c        **** 
 548:main.c        **** int main()
 549:main.c        **** {
 1744              		.loc 1 549 0
 1745              		.cfi_startproc
 1746              		@ Volatile: function does not return.
 1747              		@ args = 0, pretend = 0, frame = 0
 1748              		@ frame_needed = 0, uses_anonymous_args = 0
 1749 0000 08B5     		push	{r3, lr}
 1750              		.cfi_def_cfa_offset 8
 1751              		.cfi_offset 3, -8
 1752              		.cfi_offset 14, -4
 550:main.c        ****     init();
 1753              		.loc 1 550 0
 1754 0002 FFF7FEFF 		bl	init
 1755              	.LVL246:
 1756              	.L137:
 551:main.c        ****     for(;;)
 552:main.c        ****     {
 553:main.c        ****         Led_Write(1);
 1757              		.loc 1 553 0 discriminator 1
 1758 0006 0120     		movs	r0, #1
 1759 0008 FFF7FEFF 		bl	Led_Write
 1760              	.LVL247:
 554:main.c        ****         polling_usb();       
 1761              		.loc 1 554 0 discriminator 1
 1762 000c FFF7FEFF 		bl	polling_usb
 1763              	.LVL248:
 1764 0010 F9E7     		b	.L137
 1765              		.cfi_endproc
 1766              	.LFE69:
 1767              		.size	main, .-main
 1768              		.global	stop
 1769              		.global	parity
 1770              		.comm	print2,2,4
 1771              		.comm	print1,2,4
 1772              		.comm	rventa2,99,4
ARM GAS  C:\Users\leo40\AppData\Local\Temp\ccRH9XFk.s 			page 43


 1773              		.comm	rventa1,99,4
 1774              		.comm	hora,2,4
 1775              		.comm	fecha,3,4
 1776              		.comm	km,2,4
 1777              		.comm	id_logo,2,4
 1778              		.comm	lema2,32,4
 1779              		.comm	lema1,32,4
 1780              		.comm	direccion,33,4
 1781              		.comm	telefono,20,4
 1782              		.comm	nit,15,4
 1783              		.comm	nombre,33,4
 1784              		.comm	lado2,92,4
 1785              		.comm	lado1,92,4
 1786              		.comm	version,1,1
 1787              		.comm	nombre_pro3,17,4
 1788              		.comm	nombre_pro2,17,4
 1789              		.comm	nombre_pro1,17,4
 1790              		.comm	ppux10,1,1
 1791 0012 00BF     		.data
 1792              		.align	2
 1793              		.type	stop, %object
 1794              		.size	stop, 12
 1795              	stop:
 1796 0000 8C000000 		.word	.LC5
 1797 0004 90000000 		.word	.LC6
 1798 0008 94000000 		.word	.LC7
 1799              		.type	parity, %object
 1800              		.size	parity, 20
 1801              	parity:
 1802 000c 98000000 		.word	.LC8
 1803 0010 A0000000 		.word	.LC9
 1804 0014 A4000000 		.word	.LC10
 1805 0018 AC000000 		.word	.LC11
 1806 001c B4000000 		.word	.LC12
 1807              		.section	.rodata.str1.4,"aMS",%progbits,1
 1808              		.align	2
 1809              	.LC0:
 1810 0000 0A0A4E6F 		.ascii	"\012\012No hay comunicacion con esta posicion.\012\012"
 1810      20686179 
 1810      20636F6D 
 1810      756E6963 
 1810      6163696F 
 1811 002a 0A0A0A0A 		.ascii	"\012\012\012\012\000"
 1811      00
 1812 002f 00       		.space	1
 1813              	.LC1:
 1814 0030 0A0A506F 		.ascii	"\012\012Posicion OK y no hay recibos para imprimir."
 1814      73696369 
 1814      6F6E204F 
 1814      4B207920 
 1814      6E6F2068 
 1815 005d 0A0A0A0A 		.ascii	"\012\012\012\012\012\012\000"
 1815      0A0A00
 1816              	.LC2:
 1817 0064 0A0A506F 		.ascii	"\012\012Posicion ocupada.\012\012\012\012\012\012\000"
 1817      73696369 
 1817      6F6E206F 
ARM GAS  C:\Users\leo40\AppData\Local\Temp\ccRH9XFk.s 			page 44


 1817      63757061 
 1817      64612E0A 
 1818 007e 0000     		.space	2
 1819              	.LC3:
 1820 0080 4F4B00   		.ascii	"OK\000"
 1821 0083 00       		.space	1
 1822              	.LC4:
 1823 0084 4552524F 		.ascii	"ERROR\000"
 1823      5200
 1824 008a 0000     		.space	2
 1825              	.LC5:
 1826 008c 3100     		.ascii	"1\000"
 1827 008e 0000     		.space	2
 1828              	.LC6:
 1829 0090 312E3500 		.ascii	"1.5\000"
 1830              	.LC7:
 1831 0094 3200     		.ascii	"2\000"
 1832 0096 0000     		.space	2
 1833              	.LC8:
 1834 0098 4E6F6E65 		.ascii	"None\000"
 1834      00
 1835 009d 000000   		.space	3
 1836              	.LC9:
 1837 00a0 4F646400 		.ascii	"Odd\000"
 1838              	.LC10:
 1839 00a4 4576656E 		.ascii	"Even\000"
 1839      00
 1840 00a9 000000   		.space	3
 1841              	.LC11:
 1842 00ac 4D61726B 		.ascii	"Mark\000"
 1842      00
 1843 00b1 000000   		.space	3
 1844              	.LC12:
 1845 00b4 53706163 		.ascii	"Space\000"
 1845      6500
 1846              		.text
 1847              	.Letext0:
 1848              		.file 2 "c:\\program files (x86)\\cypress\\psoc creator\\4.2\\psoc creator\\import\\gnu\\arm\\5.4.
 1849              		.file 3 "c:\\program files (x86)\\cypress\\psoc creator\\4.2\\psoc creator\\import\\gnu\\arm\\5.4.
 1850              		.file 4 "Generated_Source\\PSoC5/cytypes.h"
 1851              		.file 5 "VariablesG.h"
 1852              		.file 6 "Generated_Source\\PSoC5/core_cm3.h"
 1853              		.file 7 "Generated_Source\\PSoC5/I2C_1.h"
 1854              		.file 8 "Generated_Source\\PSoC5/Surtidor.h"
 1855              		.file 9 "Generated_Source\\PSoC5/RS232.h"
 1856              		.file 10 "Generated_Source\\PSoC5/USBUART.h"
 1857              		.file 11 "Generated_Source\\PSoC5/EEPROM.h"
 1858              		.file 12 "Generated_Source\\PSoC5/CyLib.h"
 1859              		.file 13 "Generated_Source\\PSoC5/Led.h"
 1860              		.file 14 "Protocolo.h"
 1861              		.file 15 "Generated_Source\\PSoC5/Botones.h"
 1862              		.file 16 "Generated_Source\\PSoC5/Select0_RS232.h"
 1863              		.file 17 "Generated_Source\\PSoC5/Select1_RS232.h"
 1864              		.file 18 "Print.h"
 1865              		.file 19 "Generated_Source\\PSoC5/USBUART_cdc.h"
 1866              		.file 20 "i2c.h"