ARM GAS  C:\Users\leo40\AppData\Local\Temp\ccUVeDuz.s 			page 1


   1              		.syntax unified
   2              		.cpu cortex-m3
   3              		.fpu softvfp
   4              		.eabi_attribute 20, 1
   5              		.eabi_attribute 21, 1
   6              		.eabi_attribute 23, 3
   7              		.eabi_attribute 24, 1
   8              		.eabi_attribute 25, 1
   9              		.eabi_attribute 26, 1
  10              		.eabi_attribute 30, 1
  11              		.eabi_attribute 34, 1
  12              		.eabi_attribute 18, 4
  13              		.thumb
  14              		.syntax unified
  15              		.file	"Print.c"
  16              		.text
  17              	.Ltext0:
  18              		.cfi_sections	.debug_frame
  19              		.section	.text.imprimir,"ax",%progbits
  20              		.align	2
  21              		.global	imprimir
  22              		.thumb
  23              		.thumb_func
  24              		.type	imprimir, %function
  25              	imprimir:
  26              	.LFB63:
  27              		.file 1 "Print.c"
   1:Print.c       **** /*
   2:Print.c       **** ***************************************************************************************************
   3:Print.c       **** *                                         FC_Impresion CODE
   4:Print.c       **** *
   5:Print.c       **** *                             (c) Copyright 2016; Distracom S.A
   6:Print.c       **** *
   7:Print.c       **** *               All rights reserved.  Protected by international copyright laws.
   8:Print.c       **** *               Knowledge of the source code may NOT be used to develop a similar product.
   9:Print.c       **** *               Please help us continue to provide the Embedded community with the finest
  10:Print.c       **** *               software available.  Your honesty is greatly appreciated.
  11:Print.c       **** ***************************************************************************************************
  12:Print.c       **** */
  13:Print.c       **** 
  14:Print.c       **** /*
  15:Print.c       **** ***************************************************************************************************
  16:Print.c       **** *
  17:Print.c       **** *                                            FC_Impresion CODE
  18:Print.c       **** *
  19:Print.c       **** *                                             CYPRESS PSoC5LP
  20:Print.c       **** *                                                with the
  21:Print.c       **** *                                            CY8C5888LTI-LP097
  22:Print.c       **** *
  23:Print.c       **** * Filename      : Print.h
  24:Print.c       **** * Version       : V1.00
  25:Print.c       **** * Programmer(s) : Leonardo Orjuela   
  26:Print.c       ****                   
  27:Print.c       **** ***************************************************************************************************
  28:Print.c       **** */
  29:Print.c       **** 
  30:Print.c       **** /*
ARM GAS  C:\Users\leo40\AppData\Local\Temp\ccUVeDuz.s 			page 2


  31:Print.c       **** ***************************************************************************************************
  32:Print.c       **** *                                             INCLUDE FILES
  33:Print.c       **** ***************************************************************************************************
  34:Print.c       **** */
  35:Print.c       **** #include <project.h>
  36:Print.c       **** #include "VariablesG.h"
  37:Print.c       **** #include "i2c.h"
  38:Print.c       **** 
  39:Print.c       **** void imprimir(uint8 pos, uint8 prod, uint8 *ppu, uint8 *volumen, uint8 *dinero){
  28              		.loc 1 39 0
  29              		.cfi_startproc
  30              		@ args = 4, pretend = 0, frame = 0
  31              		@ frame_needed = 0, uses_anonymous_args = 0
  32              	.LVL0:
  33 0000 2DE9F843 		push	{r3, r4, r5, r6, r7, r8, r9, lr}
  34              		.cfi_def_cfa_offset 32
  35              		.cfi_offset 3, -32
  36              		.cfi_offset 4, -28
  37              		.cfi_offset 5, -24
  38              		.cfi_offset 6, -20
  39              		.cfi_offset 7, -16
  40              		.cfi_offset 8, -12
  41              		.cfi_offset 9, -8
  42              		.cfi_offset 14, -4
  43 0004 0746     		mov	r7, r0
  44 0006 8946     		mov	r9, r1
  45 0008 9046     		mov	r8, r2
  46 000a 1D46     		mov	r5, r3
  47 000c 089E     		ldr	r6, [sp, #32]
  40:Print.c       ****     uint8 x, digito;
  41:Print.c       ****     
  42:Print.c       **** 	RS232_PutString("      ESTACION DE SERVICIO\n");	
  48              		.loc 1 42 0
  49 000e A948     		ldr	r0, .L54
  50              	.LVL1:
  51 0010 FFF7FEFF 		bl	RS232_PutString
  52              	.LVL2:
  43:Print.c       ****     //RS232_PutString("        TEXACO CALIFORNIA\n");
  44:Print.c       **** 	for(x=0;x<=((31-nombre[0])/2);x++){						//NOMBRE
  53              		.loc 1 44 0
  54 0014 0024     		movs	r4, #0
  55 0016 04E0     		b	.L2
  56              	.LVL3:
  57              	.L3:
  45:Print.c       **** 		RS232_PutChar(0x20);
  58              		.loc 1 45 0 discriminator 3
  59 0018 2020     		movs	r0, #32
  60 001a FFF7FEFF 		bl	RS232_PutChar
  61              	.LVL4:
  44:Print.c       **** 		RS232_PutChar(0x20);
  62              		.loc 1 44 0 discriminator 3
  63 001e 0134     		adds	r4, r4, #1
  64              	.LVL5:
  65 0020 E4B2     		uxtb	r4, r4
  66              	.LVL6:
  67              	.L2:
  44:Print.c       **** 		RS232_PutChar(0x20);
ARM GAS  C:\Users\leo40\AppData\Local\Temp\ccUVeDuz.s 			page 3


  68              		.loc 1 44 0 is_stmt 0 discriminator 1
  69 0022 A54B     		ldr	r3, .L54+4
  70 0024 1B78     		ldrb	r3, [r3]	@ zero_extendqisi2
  71 0026 C3F11F03 		rsb	r3, r3, #31
  72 002a 03EBD373 		add	r3, r3, r3, lsr #31
  73 002e B4EB630F 		cmp	r4, r3, asr #1
  74 0032 F1DD     		ble	.L3
  75 0034 0124     		movs	r4, #1
  76              	.LVL7:
  77 0036 05E0     		b	.L4
  78              	.LVL8:
  79              	.L5:
  46:Print.c       **** 	}
  47:Print.c       **** 	for(x=1;x<=nombre[0];x++){
  48:Print.c       **** 		RS232_PutChar(nombre[x]);			
  80              		.loc 1 48 0 is_stmt 1 discriminator 3
  81 0038 9F4B     		ldr	r3, .L54+4
  82 003a 185D     		ldrb	r0, [r3, r4]	@ zero_extendqisi2
  83 003c FFF7FEFF 		bl	RS232_PutChar
  84              	.LVL9:
  47:Print.c       **** 		RS232_PutChar(nombre[x]);			
  85              		.loc 1 47 0 discriminator 3
  86 0040 0134     		adds	r4, r4, #1
  87              	.LVL10:
  88 0042 E4B2     		uxtb	r4, r4
  89              	.LVL11:
  90              	.L4:
  47:Print.c       **** 		RS232_PutChar(nombre[x]);			
  91              		.loc 1 47 0 is_stmt 0 discriminator 1
  92 0044 9C4B     		ldr	r3, .L54+4
  93 0046 1B78     		ldrb	r3, [r3]	@ zero_extendqisi2
  94 0048 DBB2     		uxtb	r3, r3
  95 004a 9C42     		cmp	r4, r3
  96 004c F4D9     		bls	.L5
  49:Print.c       **** 	}
  50:Print.c       ****     RS232_PutChar(10);
  97              		.loc 1 50 0 is_stmt 1
  98 004e 0A20     		movs	r0, #10
  99 0050 FFF7FEFF 		bl	RS232_PutChar
 100              	.LVL12:
  51:Print.c       **** 	if(nit[0]>=1){
 101              		.loc 1 51 0
 102 0054 994B     		ldr	r3, .L54+8
 103 0056 1B78     		ldrb	r3, [r3]	@ zero_extendqisi2
 104 0058 13F0FF0F 		tst	r3, #255
 105 005c 06D1     		bne	.L46
 106 005e 22E0     		b	.L7
 107              	.L8:
  52:Print.c       **** 		for(x=0;x<=((31-(nit[0]+4))/2);x++){				//NIT
  53:Print.c       **** 			RS232_PutChar(0x20);			
 108              		.loc 1 53 0 discriminator 3
 109 0060 2020     		movs	r0, #32
 110 0062 FFF7FEFF 		bl	RS232_PutChar
 111              	.LVL13:
  52:Print.c       **** 		for(x=0;x<=((31-(nit[0]+4))/2);x++){				//NIT
 112              		.loc 1 52 0 discriminator 3
 113 0066 0134     		adds	r4, r4, #1
ARM GAS  C:\Users\leo40\AppData\Local\Temp\ccUVeDuz.s 			page 4


 114              	.LVL14:
 115 0068 E4B2     		uxtb	r4, r4
 116              	.LVL15:
 117 006a 00E0     		b	.L6
 118              	.L46:
 119 006c 0024     		movs	r4, #0
 120              	.LVL16:
 121              	.L6:
  52:Print.c       **** 		for(x=0;x<=((31-(nit[0]+4))/2);x++){				//NIT
 122              		.loc 1 52 0 is_stmt 0 discriminator 1
 123 006e 934B     		ldr	r3, .L54+8
 124 0070 1B78     		ldrb	r3, [r3]	@ zero_extendqisi2
 125 0072 C3F11B03 		rsb	r3, r3, #27
 126 0076 03EBD373 		add	r3, r3, r3, lsr #31
 127 007a B4EB630F 		cmp	r4, r3, asr #1
 128 007e EFDD     		ble	.L8
  54:Print.c       **** 		}											
  55:Print.c       **** 		RS232_PutString("NIT ");
 129              		.loc 1 55 0 is_stmt 1
 130 0080 8F48     		ldr	r0, .L54+12
 131 0082 FFF7FEFF 		bl	RS232_PutString
 132              	.LVL17:
  56:Print.c       **** 		for(x=1;x<=nit[0];x++){
 133              		.loc 1 56 0
 134 0086 0124     		movs	r4, #1
 135 0088 05E0     		b	.L9
 136              	.LVL18:
 137              	.L10:
  57:Print.c       **** 			RS232_PutChar(nit[x]);			
 138              		.loc 1 57 0 discriminator 3
 139 008a 8C4B     		ldr	r3, .L54+8
 140 008c 185D     		ldrb	r0, [r3, r4]	@ zero_extendqisi2
 141 008e FFF7FEFF 		bl	RS232_PutChar
 142              	.LVL19:
  56:Print.c       **** 		for(x=1;x<=nit[0];x++){
 143              		.loc 1 56 0 discriminator 3
 144 0092 0134     		adds	r4, r4, #1
 145              	.LVL20:
 146 0094 E4B2     		uxtb	r4, r4
 147              	.LVL21:
 148              	.L9:
  56:Print.c       **** 		for(x=1;x<=nit[0];x++){
 149              		.loc 1 56 0 is_stmt 0 discriminator 1
 150 0096 894B     		ldr	r3, .L54+8
 151 0098 1B78     		ldrb	r3, [r3]	@ zero_extendqisi2
 152 009a DBB2     		uxtb	r3, r3
 153 009c 9C42     		cmp	r4, r3
 154 009e F4D9     		bls	.L10
  58:Print.c       **** 		}
  59:Print.c       **** 		RS232_PutChar(10);
 155              		.loc 1 59 0 is_stmt 1
 156 00a0 0A20     		movs	r0, #10
 157 00a2 FFF7FEFF 		bl	RS232_PutChar
 158              	.LVL22:
 159              	.L7:
  60:Print.c       **** 	}
  61:Print.c       **** 	if(telefono[0]>=1){
ARM GAS  C:\Users\leo40\AppData\Local\Temp\ccUVeDuz.s 			page 5


 160              		.loc 1 61 0
 161 00a6 874B     		ldr	r3, .L54+16
 162 00a8 1B78     		ldrb	r3, [r3]	@ zero_extendqisi2
 163 00aa 13F0FF0F 		tst	r3, #255
 164 00ae 06D1     		bne	.L47
 165 00b0 25E0     		b	.L12
 166              	.L13:
  62:Print.c       **** 		for(x=0;x<=((31-(telefono[0]+4))/2);x++){	        //TELEFONO
  63:Print.c       **** 			RS232_PutChar(0x20);			
 167              		.loc 1 63 0 discriminator 3
 168 00b2 2020     		movs	r0, #32
 169 00b4 FFF7FEFF 		bl	RS232_PutChar
 170              	.LVL23:
  62:Print.c       **** 		for(x=0;x<=((31-(telefono[0]+4))/2);x++){	        //TELEFONO
 171              		.loc 1 62 0 discriminator 3
 172 00b8 0134     		adds	r4, r4, #1
 173              	.LVL24:
 174 00ba E4B2     		uxtb	r4, r4
 175              	.LVL25:
 176 00bc 00E0     		b	.L11
 177              	.L47:
 178 00be 0024     		movs	r4, #0
 179              	.LVL26:
 180              	.L11:
  62:Print.c       **** 		for(x=0;x<=((31-(telefono[0]+4))/2);x++){	        //TELEFONO
 181              		.loc 1 62 0 is_stmt 0 discriminator 1
 182 00c0 804B     		ldr	r3, .L54+16
 183 00c2 1B78     		ldrb	r3, [r3]	@ zero_extendqisi2
 184 00c4 C3F11B03 		rsb	r3, r3, #27
 185 00c8 03EBD373 		add	r3, r3, r3, lsr #31
 186 00cc B4EB630F 		cmp	r4, r3, asr #1
 187 00d0 EFDD     		ble	.L13
  64:Print.c       **** 		}											
  65:Print.c       **** 		RS232_PutString("TEL:");
 188              		.loc 1 65 0 is_stmt 1
 189 00d2 7D48     		ldr	r0, .L54+20
 190 00d4 FFF7FEFF 		bl	RS232_PutString
 191              	.LVL27:
  66:Print.c       **** 		for(x=1;x<=telefono[0];x++){
 192              		.loc 1 66 0
 193 00d8 0124     		movs	r4, #1
 194 00da 05E0     		b	.L14
 195              	.LVL28:
 196              	.L15:
  67:Print.c       **** 			RS232_PutChar(telefono[x]);			
 197              		.loc 1 67 0 discriminator 3
 198 00dc 794B     		ldr	r3, .L54+16
 199 00de 185D     		ldrb	r0, [r3, r4]	@ zero_extendqisi2
 200 00e0 FFF7FEFF 		bl	RS232_PutChar
 201              	.LVL29:
  66:Print.c       **** 		for(x=1;x<=telefono[0];x++){
 202              		.loc 1 66 0 discriminator 3
 203 00e4 0134     		adds	r4, r4, #1
 204              	.LVL30:
 205 00e6 E4B2     		uxtb	r4, r4
 206              	.LVL31:
 207              	.L14:
ARM GAS  C:\Users\leo40\AppData\Local\Temp\ccUVeDuz.s 			page 6


  66:Print.c       **** 		for(x=1;x<=telefono[0];x++){
 208              		.loc 1 66 0 is_stmt 0 discriminator 1
 209 00e8 764B     		ldr	r3, .L54+16
 210 00ea 1B78     		ldrb	r3, [r3]	@ zero_extendqisi2
 211 00ec DBB2     		uxtb	r3, r3
 212 00ee 9C42     		cmp	r4, r3
 213 00f0 F4D9     		bls	.L15
  68:Print.c       **** 		}			
  69:Print.c       **** 	    RS232_PutChar(10);
 214              		.loc 1 69 0 is_stmt 1
 215 00f2 0A20     		movs	r0, #10
 216 00f4 FFF7FEFF 		bl	RS232_PutChar
 217              	.LVL32:
  70:Print.c       **** 	    RS232_PutChar(10);
 218              		.loc 1 70 0
 219 00f8 0A20     		movs	r0, #10
 220 00fa FFF7FEFF 		bl	RS232_PutChar
 221              	.LVL33:
 222              	.L12:
  66:Print.c       **** 			RS232_PutChar(telefono[x]);			
 223              		.loc 1 66 0 discriminator 1
 224 00fe 0024     		movs	r4, #0
 225              	.LVL34:
 226 0100 04E0     		b	.L16
 227              	.LVL35:
 228              	.L17:
  71:Print.c       **** 	}
  72:Print.c       **** 	for(x=0;x<=((31-direccion[0])/2);x++){			        //DIRECCION
  73:Print.c       **** 		RS232_PutChar(0x20);			
 229              		.loc 1 73 0 discriminator 3
 230 0102 2020     		movs	r0, #32
 231 0104 FFF7FEFF 		bl	RS232_PutChar
 232              	.LVL36:
  72:Print.c       **** 		RS232_PutChar(0x20);			
 233              		.loc 1 72 0 discriminator 3
 234 0108 0134     		adds	r4, r4, #1
 235              	.LVL37:
 236 010a E4B2     		uxtb	r4, r4
 237              	.LVL38:
 238              	.L16:
  72:Print.c       **** 		RS232_PutChar(0x20);			
 239              		.loc 1 72 0 is_stmt 0 discriminator 1
 240 010c 6F4B     		ldr	r3, .L54+24
 241 010e 1B78     		ldrb	r3, [r3]	@ zero_extendqisi2
 242 0110 C3F11F03 		rsb	r3, r3, #31
 243 0114 03EBD373 		add	r3, r3, r3, lsr #31
 244 0118 B4EB630F 		cmp	r4, r3, asr #1
 245 011c F1DD     		ble	.L17
 246 011e 0124     		movs	r4, #1
 247              	.LVL39:
 248 0120 05E0     		b	.L18
 249              	.LVL40:
 250              	.L19:
  74:Print.c       **** 	}
  75:Print.c       **** 	for(x=1;x<=direccion[0];x++){
  76:Print.c       **** 		RS232_PutChar(direccion[x]);			
 251              		.loc 1 76 0 is_stmt 1 discriminator 3
ARM GAS  C:\Users\leo40\AppData\Local\Temp\ccUVeDuz.s 			page 7


 252 0122 6A4B     		ldr	r3, .L54+24
 253 0124 185D     		ldrb	r0, [r3, r4]	@ zero_extendqisi2
 254 0126 FFF7FEFF 		bl	RS232_PutChar
 255              	.LVL41:
  75:Print.c       **** 		RS232_PutChar(direccion[x]);			
 256              		.loc 1 75 0 discriminator 3
 257 012a 0134     		adds	r4, r4, #1
 258              	.LVL42:
 259 012c E4B2     		uxtb	r4, r4
 260              	.LVL43:
 261              	.L18:
  75:Print.c       **** 		RS232_PutChar(direccion[x]);			
 262              		.loc 1 75 0 is_stmt 0 discriminator 1
 263 012e 674B     		ldr	r3, .L54+24
 264 0130 1B78     		ldrb	r3, [r3]	@ zero_extendqisi2
 265 0132 DBB2     		uxtb	r3, r3
 266 0134 9C42     		cmp	r4, r3
 267 0136 F4D9     		bls	.L19
  77:Print.c       **** 	}
  78:Print.c       ****     RS232_PutChar(10);
 268              		.loc 1 78 0 is_stmt 1
 269 0138 0A20     		movs	r0, #10
 270 013a FFF7FEFF 		bl	RS232_PutChar
 271              	.LVL44:
  79:Print.c       ****     RS232_PutChar(10);
 272              		.loc 1 79 0
 273 013e 0A20     		movs	r0, #10
 274 0140 FFF7FEFF 		bl	RS232_PutChar
 275              	.LVL45:
  80:Print.c       ****     RS232_PutChar(10);    																	
 276              		.loc 1 80 0
 277 0144 0A20     		movs	r0, #10
 278 0146 FFF7FEFF 		bl	RS232_PutChar
 279              	.LVL46:
  81:Print.c       **** 	RS232_PutString("FECHA: ");                             //FECHA	
 280              		.loc 1 81 0
 281 014a 6148     		ldr	r0, .L54+28
 282 014c FFF7FEFF 		bl	RS232_PutString
 283              	.LVL47:
  82:Print.c       **** 	if(leer_fecha()==1){
 284              		.loc 1 82 0
 285 0150 FFF7FEFF 		bl	leer_fecha
 286              	.LVL48:
 287 0154 0128     		cmp	r0, #1
 288 0156 2AD1     		bne	.L20
  83:Print.c       **** 		RS232_PutChar(((fecha[0]&0x30)>>4)+48);
 289              		.loc 1 83 0
 290 0158 5E4C     		ldr	r4, .L54+32
 291              	.LVL49:
 292 015a 2078     		ldrb	r0, [r4]	@ zero_extendqisi2
 293 015c C0F30110 		ubfx	r0, r0, #4, #2
 294 0160 3030     		adds	r0, r0, #48
 295 0162 FFF7FEFF 		bl	RS232_PutChar
 296              	.LVL50:
  84:Print.c       **** 		RS232_PutChar((fecha[0]&0x0F)+48);
 297              		.loc 1 84 0
 298 0166 2078     		ldrb	r0, [r4]	@ zero_extendqisi2
ARM GAS  C:\Users\leo40\AppData\Local\Temp\ccUVeDuz.s 			page 8


 299 0168 00F00F00 		and	r0, r0, #15
 300 016c 3030     		adds	r0, r0, #48
 301 016e FFF7FEFF 		bl	RS232_PutChar
 302              	.LVL51:
  85:Print.c       **** 		RS232_PutChar('/');
 303              		.loc 1 85 0
 304 0172 2F20     		movs	r0, #47
 305 0174 FFF7FEFF 		bl	RS232_PutChar
 306              	.LVL52:
  86:Print.c       **** 		RS232_PutChar(((fecha[1]&0x10)>>4)+48);
 307              		.loc 1 86 0
 308 0178 6078     		ldrb	r0, [r4, #1]	@ zero_extendqisi2
 309 017a C0F30010 		ubfx	r0, r0, #4, #1
 310 017e 3030     		adds	r0, r0, #48
 311 0180 C0B2     		uxtb	r0, r0
 312 0182 FFF7FEFF 		bl	RS232_PutChar
 313              	.LVL53:
  87:Print.c       **** 		RS232_PutChar((fecha[1]&0x0F)+48);	
 314              		.loc 1 87 0
 315 0186 6078     		ldrb	r0, [r4, #1]	@ zero_extendqisi2
 316 0188 00F00F00 		and	r0, r0, #15
 317 018c 3030     		adds	r0, r0, #48
 318 018e FFF7FEFF 		bl	RS232_PutChar
 319              	.LVL54:
  88:Print.c       **** 		RS232_PutChar('/');
 320              		.loc 1 88 0
 321 0192 2F20     		movs	r0, #47
 322 0194 FFF7FEFF 		bl	RS232_PutChar
 323              	.LVL55:
  89:Print.c       **** 		RS232_PutChar(((fecha[2]&0xF0)>>4)+48);
 324              		.loc 1 89 0
 325 0198 A078     		ldrb	r0, [r4, #2]	@ zero_extendqisi2
 326 019a 0009     		lsrs	r0, r0, #4
 327 019c 3030     		adds	r0, r0, #48
 328 019e FFF7FEFF 		bl	RS232_PutChar
 329              	.LVL56:
  90:Print.c       **** 		RS232_PutChar((fecha[2]&0x0F)+48);			
 330              		.loc 1 90 0
 331 01a2 A078     		ldrb	r0, [r4, #2]	@ zero_extendqisi2
 332 01a4 00F00F00 		and	r0, r0, #15
 333 01a8 3030     		adds	r0, r0, #48
 334 01aa FFF7FEFF 		bl	RS232_PutChar
 335              	.LVL57:
 336              	.L20:
  91:Print.c       **** 	}
  92:Print.c       ****     RS232_PutChar(10);	                                							
 337              		.loc 1 92 0
 338 01ae 0A20     		movs	r0, #10
 339 01b0 FFF7FEFF 		bl	RS232_PutChar
 340              	.LVL58:
  93:Print.c       **** 	RS232_PutString("HORA:  ");                             //HORA
 341              		.loc 1 93 0
 342 01b4 4848     		ldr	r0, .L54+36
 343 01b6 FFF7FEFF 		bl	RS232_PutString
 344              	.LVL59:
  94:Print.c       **** 	if(leer_hora()==1){										
 345              		.loc 1 94 0
ARM GAS  C:\Users\leo40\AppData\Local\Temp\ccUVeDuz.s 			page 9


 346 01ba FFF7FEFF 		bl	leer_hora
 347              	.LVL60:
 348 01be 0128     		cmp	r0, #1
 349 01c0 1AD1     		bne	.L21
  95:Print.c       **** 		RS232_PutChar(((hora[1]&0x30)>>4)+48);
 350              		.loc 1 95 0
 351 01c2 464C     		ldr	r4, .L54+40
 352 01c4 6078     		ldrb	r0, [r4, #1]	@ zero_extendqisi2
 353 01c6 C0F30110 		ubfx	r0, r0, #4, #2
 354 01ca 3030     		adds	r0, r0, #48
 355 01cc FFF7FEFF 		bl	RS232_PutChar
 356              	.LVL61:
  96:Print.c       **** 		RS232_PutChar((hora[1]&0x0F)+48);
 357              		.loc 1 96 0
 358 01d0 6078     		ldrb	r0, [r4, #1]	@ zero_extendqisi2
 359 01d2 00F00F00 		and	r0, r0, #15
 360 01d6 3030     		adds	r0, r0, #48
 361 01d8 FFF7FEFF 		bl	RS232_PutChar
 362              	.LVL62:
  97:Print.c       **** 		RS232_PutChar(':');
 363              		.loc 1 97 0
 364 01dc 3A20     		movs	r0, #58
 365 01de FFF7FEFF 		bl	RS232_PutChar
 366              	.LVL63:
  98:Print.c       **** 		RS232_PutChar(((hora[0]&0xF0)>>4)+48);
 367              		.loc 1 98 0
 368 01e2 2078     		ldrb	r0, [r4]	@ zero_extendqisi2
 369 01e4 0009     		lsrs	r0, r0, #4
 370 01e6 3030     		adds	r0, r0, #48
 371 01e8 FFF7FEFF 		bl	RS232_PutChar
 372              	.LVL64:
  99:Print.c       **** 		RS232_PutChar((hora[0]&0x0F)+48);
 373              		.loc 1 99 0
 374 01ec 2078     		ldrb	r0, [r4]	@ zero_extendqisi2
 375 01ee 00F00F00 		and	r0, r0, #15
 376 01f2 3030     		adds	r0, r0, #48
 377 01f4 FFF7FEFF 		bl	RS232_PutChar
 378              	.LVL65:
 379              	.L21:
 100:Print.c       **** 	}
 101:Print.c       ****     RS232_PutChar(10);
 380              		.loc 1 101 0
 381 01f8 0A20     		movs	r0, #10
 382 01fa FFF7FEFF 		bl	RS232_PutChar
 383              	.LVL66:
 102:Print.c       ****     RS232_PutChar(10);																	
 384              		.loc 1 102 0
 385 01fe 0A20     		movs	r0, #10
 386 0200 FFF7FEFF 		bl	RS232_PutChar
 387              	.LVL67:
 103:Print.c       ****     RS232_PutString("POSICION:  ");                         //POSICION
 388              		.loc 1 103 0
 389 0204 3648     		ldr	r0, .L54+44
 390 0206 FFF7FEFF 		bl	RS232_PutString
 391              	.LVL68:
 104:Print.c       ****     RS232_PutChar((pos/10)+48);
 392              		.loc 1 104 0
ARM GAS  C:\Users\leo40\AppData\Local\Temp\ccUVeDuz.s 			page 10


 393 020a 364C     		ldr	r4, .L54+48
 394 020c A4FB0734 		umull	r3, r4, r4, r7
 395 0210 E408     		lsrs	r4, r4, #3
 396 0212 04F13000 		add	r0, r4, #48
 397 0216 FFF7FEFF 		bl	RS232_PutChar
 398              	.LVL69:
 105:Print.c       **** 	RS232_PutChar((pos%10)+48);
 399              		.loc 1 105 0
 400 021a 04EB8404 		add	r4, r4, r4, lsl #2
 401 021e 6000     		lsls	r0, r4, #1
 402 0220 381A     		subs	r0, r7, r0
 403 0222 3030     		adds	r0, r0, #48
 404 0224 C0B2     		uxtb	r0, r0
 405 0226 FFF7FEFF 		bl	RS232_PutChar
 406              	.LVL70:
 106:Print.c       ****     RS232_PutChar(10);    																		
 407              		.loc 1 106 0
 408 022a 0A20     		movs	r0, #10
 409 022c FFF7FEFF 		bl	RS232_PutChar
 410              	.LVL71:
 107:Print.c       **** 	RS232_PutString("PRODUCTO:  ");                         //PRODUCTO 
 411              		.loc 1 107 0
 412 0230 2D48     		ldr	r0, .L54+52
 413 0232 FFF7FEFF 		bl	RS232_PutString
 414              	.LVL72:
 108:Print.c       ****     if(prod=='1'){
 415              		.loc 1 108 0
 416 0236 B9F1310F 		cmp	r9, #49
 417 023a 0ED1     		bne	.L51
 418 023c 06E0     		b	.L48
 419              	.LVL73:
 420              	.L24:
 109:Print.c       **** 		for(x=1;x<=nombre_pro1[0];x++){
 110:Print.c       **** 			RS232_PutChar(nombre_pro1[x]);			
 421              		.loc 1 110 0 discriminator 3
 422 023e 2B4B     		ldr	r3, .L54+56
 423 0240 185D     		ldrb	r0, [r3, r4]	@ zero_extendqisi2
 424 0242 FFF7FEFF 		bl	RS232_PutChar
 425              	.LVL74:
 109:Print.c       **** 		for(x=1;x<=nombre_pro1[0];x++){
 426              		.loc 1 109 0 discriminator 3
 427 0246 0134     		adds	r4, r4, #1
 428              	.LVL75:
 429 0248 E4B2     		uxtb	r4, r4
 430              	.LVL76:
 431 024a 00E0     		b	.L22
 432              	.LVL77:
 433              	.L48:
 434 024c 0124     		movs	r4, #1
 435              	.L22:
 436              	.LVL78:
 109:Print.c       **** 		for(x=1;x<=nombre_pro1[0];x++){
 437              		.loc 1 109 0 is_stmt 0 discriminator 1
 438 024e 274B     		ldr	r3, .L54+56
 439 0250 1B78     		ldrb	r3, [r3]	@ zero_extendqisi2
 440 0252 DBB2     		uxtb	r3, r3
 441 0254 9C42     		cmp	r4, r3
ARM GAS  C:\Users\leo40\AppData\Local\Temp\ccUVeDuz.s 			page 11


 442 0256 F2D9     		bls	.L24
 443 0258 22E0     		b	.L25
 444              	.LVL79:
 445              	.L51:
 111:Print.c       **** 		}		
 112:Print.c       **** 	}
 113:Print.c       **** 	else if(prod=='2'){
 446              		.loc 1 113 0 is_stmt 1
 447 025a B9F1320F 		cmp	r9, #50
 448 025e 0ED1     		bne	.L52
 449 0260 06E0     		b	.L49
 450              	.LVL80:
 451              	.L28:
 114:Print.c       **** 		for(x=1;x<=nombre_pro2[0];x++){
 115:Print.c       **** 			RS232_PutChar(nombre_pro2[x]);			
 452              		.loc 1 115 0 discriminator 3
 453 0262 234B     		ldr	r3, .L54+60
 454 0264 185D     		ldrb	r0, [r3, r4]	@ zero_extendqisi2
 455 0266 FFF7FEFF 		bl	RS232_PutChar
 456              	.LVL81:
 114:Print.c       **** 		for(x=1;x<=nombre_pro2[0];x++){
 457              		.loc 1 114 0 discriminator 3
 458 026a 0134     		adds	r4, r4, #1
 459              	.LVL82:
 460 026c E4B2     		uxtb	r4, r4
 461              	.LVL83:
 462 026e 00E0     		b	.L26
 463              	.LVL84:
 464              	.L49:
 465 0270 0124     		movs	r4, #1
 466              	.L26:
 467              	.LVL85:
 114:Print.c       **** 		for(x=1;x<=nombre_pro2[0];x++){
 468              		.loc 1 114 0 is_stmt 0 discriminator 1
 469 0272 1F4B     		ldr	r3, .L54+60
 470 0274 1B78     		ldrb	r3, [r3]	@ zero_extendqisi2
 471 0276 DBB2     		uxtb	r3, r3
 472 0278 9C42     		cmp	r4, r3
 473 027a F2D9     		bls	.L28
 474 027c 10E0     		b	.L25
 475              	.LVL86:
 476              	.L52:
 116:Print.c       **** 		}	
 117:Print.c       **** 	}
 118:Print.c       **** 	else if(prod=='3'){
 477              		.loc 1 118 0 is_stmt 1
 478 027e B9F1330F 		cmp	r9, #51
 479 0282 0DD1     		bne	.L25
 480 0284 06E0     		b	.L50
 481              	.LVL87:
 482              	.L30:
 119:Print.c       **** 		for(x=1;x<=nombre_pro3[0];x++){
 120:Print.c       **** 			RS232_PutChar(nombre_pro3[x]);			
 483              		.loc 1 120 0 discriminator 3
 484 0286 1B4B     		ldr	r3, .L54+64
 485 0288 185D     		ldrb	r0, [r3, r4]	@ zero_extendqisi2
 486 028a FFF7FEFF 		bl	RS232_PutChar
ARM GAS  C:\Users\leo40\AppData\Local\Temp\ccUVeDuz.s 			page 12


 487              	.LVL88:
 119:Print.c       **** 		for(x=1;x<=nombre_pro3[0];x++){
 488              		.loc 1 119 0 discriminator 3
 489 028e 0134     		adds	r4, r4, #1
 490              	.LVL89:
 491 0290 E4B2     		uxtb	r4, r4
 492              	.LVL90:
 493 0292 00E0     		b	.L29
 494              	.LVL91:
 495              	.L50:
 496 0294 0124     		movs	r4, #1
 497              	.L29:
 498              	.LVL92:
 119:Print.c       **** 		for(x=1;x<=nombre_pro3[0];x++){
 499              		.loc 1 119 0 is_stmt 0 discriminator 1
 500 0296 174B     		ldr	r3, .L54+64
 501 0298 1B78     		ldrb	r3, [r3]	@ zero_extendqisi2
 502 029a DBB2     		uxtb	r3, r3
 503 029c 9C42     		cmp	r4, r3
 504 029e F2D9     		bls	.L30
 505              	.LVL93:
 506              	.L25:
 121:Print.c       **** 		}	
 122:Print.c       **** 	}	
 123:Print.c       **** 	RS232_PutChar(10);																		
 507              		.loc 1 123 0 is_stmt 1
 508 02a0 0A20     		movs	r0, #10
 509 02a2 FFF7FEFF 		bl	RS232_PutChar
 510              	.LVL94:
 124:Print.c       **** 	RS232_PutString("PPU:       $/G ");                      //PPU
 511              		.loc 1 124 0
 512 02a6 1448     		ldr	r0, .L54+68
 513 02a8 FFF7FEFF 		bl	RS232_PutString
 514              	.LVL95:
 125:Print.c       **** 	digito=0;
 515              		.loc 1 125 0
 516 02ac 0023     		movs	r3, #0
 126:Print.c       **** 	for(x=4;x>=1;x--){
 517              		.loc 1 126 0
 518 02ae 0424     		movs	r4, #4
 519 02b0 2FE0     		b	.L31
 520              	.L55:
 521 02b2 00BF     		.align	2
 522              	.L54:
 523 02b4 00000000 		.word	.LC0
 524 02b8 00000000 		.word	nombre
 525 02bc 00000000 		.word	nit
 526 02c0 1C000000 		.word	.LC1
 527 02c4 00000000 		.word	telefono
 528 02c8 24000000 		.word	.LC2
 529 02cc 00000000 		.word	direccion
 530 02d0 2C000000 		.word	.LC3
 531 02d4 00000000 		.word	fecha
 532 02d8 34000000 		.word	.LC4
 533 02dc 00000000 		.word	hora
 534 02e0 3C000000 		.word	.LC5
 535 02e4 CDCCCCCC 		.word	-858993459
ARM GAS  C:\Users\leo40\AppData\Local\Temp\ccUVeDuz.s 			page 13


 536 02e8 48000000 		.word	.LC6
 537 02ec 00000000 		.word	nombre_pro1
 538 02f0 00000000 		.word	nombre_pro2
 539 02f4 00000000 		.word	nombre_pro3
 540 02f8 54000000 		.word	.LC7
 541              	.LVL96:
 542              	.L34:
 127:Print.c       ****         if((ppu[x]==0)&&(digito==0)){
 543              		.loc 1 127 0
 544 02fc 18F80400 		ldrb	r0, [r8, r4]	@ zero_extendqisi2
 545 0300 00B9     		cbnz	r0, .L32
 546              		.loc 1 127 0 is_stmt 0 discriminator 1
 547 0302 23B1     		cbz	r3, .L33
 548              	.L32:
 549              	.LVL97:
 128:Print.c       ****             
 129:Print.c       ****         }
 130:Print.c       ****         else{			
 131:Print.c       ****             digito=1;
 132:Print.c       ****             RS232_PutChar(ppu[x]+48);
 550              		.loc 1 132 0 is_stmt 1
 551 0304 3030     		adds	r0, r0, #48
 552 0306 C0B2     		uxtb	r0, r0
 553 0308 FFF7FEFF 		bl	RS232_PutChar
 554              	.LVL98:
 131:Print.c       ****             RS232_PutChar(ppu[x]+48);
 555              		.loc 1 131 0
 556 030c 0123     		movs	r3, #1
 557              	.LVL99:
 558              	.L33:
 126:Print.c       ****         if((ppu[x]==0)&&(digito==0)){
 559              		.loc 1 126 0 discriminator 2
 560 030e 013C     		subs	r4, r4, #1
 561              	.LVL100:
 562 0310 E4B2     		uxtb	r4, r4
 563              	.LVL101:
 564              	.L31:
 126:Print.c       ****         if((ppu[x]==0)&&(digito==0)){
 565              		.loc 1 126 0 is_stmt 0 discriminator 1
 566 0312 002C     		cmp	r4, #0
 567 0314 F2D1     		bne	.L34
 133:Print.c       ****         }	
 134:Print.c       **** 	}
 135:Print.c       **** 	RS232_PutChar(ppu[0]+48);
 568              		.loc 1 135 0 is_stmt 1
 569 0316 98F80000 		ldrb	r0, [r8]	@ zero_extendqisi2
 570 031a 3030     		adds	r0, r0, #48
 571 031c C0B2     		uxtb	r0, r0
 572 031e FFF7FEFF 		bl	RS232_PutChar
 573              	.LVL102:
 136:Print.c       **** 	if(ppux10=='1'){
 574              		.loc 1 136 0
 575 0322 3D4B     		ldr	r3, .L56
 576 0324 1B78     		ldrb	r3, [r3]	@ zero_extendqisi2
 577 0326 DBB2     		uxtb	r3, r3
 578 0328 312B     		cmp	r3, #49
 579 032a 02D1     		bne	.L35
ARM GAS  C:\Users\leo40\AppData\Local\Temp\ccUVeDuz.s 			page 14


 137:Print.c       **** 		RS232_PutChar(48);	
 580              		.loc 1 137 0
 581 032c 3020     		movs	r0, #48
 582 032e FFF7FEFF 		bl	RS232_PutChar
 583              	.LVL103:
 584              	.L35:
 138:Print.c       **** 	}
 139:Print.c       **** 	RS232_PutChar(10);    																		
 585              		.loc 1 139 0
 586 0332 0A20     		movs	r0, #10
 587 0334 FFF7FEFF 		bl	RS232_PutChar
 588              	.LVL104:
 140:Print.c       **** 	RS232_PutString("VOLUMEN:   G ");                      //VOLUMEN
 589              		.loc 1 140 0
 590 0338 3848     		ldr	r0, .L56+4
 591 033a FFF7FEFF 		bl	RS232_PutString
 592              	.LVL105:
 141:Print.c       **** 	digito=0;
 593              		.loc 1 141 0
 594 033e 0022     		movs	r2, #0
 142:Print.c       **** 	for(x=6;x>=1;x--){
 595              		.loc 1 142 0
 596 0340 0624     		movs	r4, #6
 597 0342 17E0     		b	.L36
 598              	.LVL106:
 599              	.L40:
 143:Print.c       ****         if((volumen[x]==0)&&(digito==0)){
 600              		.loc 1 143 0
 601 0344 2F19     		adds	r7, r5, r4
 602 0346 2B5D     		ldrb	r3, [r5, r4]	@ zero_extendqisi2
 603 0348 3BB9     		cbnz	r3, .L37
 604              		.loc 1 143 0 is_stmt 0 discriminator 1
 605 034a 32B9     		cbnz	r2, .L37
 144:Print.c       **** 			if(x==3){
 606              		.loc 1 144 0 is_stmt 1
 607 034c 032C     		cmp	r4, #3
 608 034e 0FD1     		bne	.L38
 145:Print.c       **** 				RS232_PutChar('0');
 609              		.loc 1 145 0
 610 0350 3020     		movs	r0, #48
 611 0352 FFF7FEFF 		bl	RS232_PutChar
 612              	.LVL107:
 146:Print.c       **** 				digito=1;
 613              		.loc 1 146 0
 614 0356 0122     		movs	r2, #1
 615 0358 0AE0     		b	.L38
 616              	.LVL108:
 617              	.L37:
 147:Print.c       **** 			}      	    
 148:Print.c       ****         }
 149:Print.c       ****         else{
 150:Print.c       **** 			if(x==2){
 618              		.loc 1 150 0
 619 035a 022C     		cmp	r4, #2
 620 035c 02D1     		bne	.L39
 151:Print.c       **** 				RS232_PutChar(',');
 621              		.loc 1 151 0
ARM GAS  C:\Users\leo40\AppData\Local\Temp\ccUVeDuz.s 			page 15


 622 035e 2C20     		movs	r0, #44
 623 0360 FFF7FEFF 		bl	RS232_PutChar
 624              	.LVL109:
 625              	.L39:
 152:Print.c       **** 			}
 153:Print.c       ****             digito=1;
 154:Print.c       ****             RS232_PutChar(volumen[x]+48);
 626              		.loc 1 154 0
 627 0364 3878     		ldrb	r0, [r7]	@ zero_extendqisi2
 628 0366 3030     		adds	r0, r0, #48
 629 0368 C0B2     		uxtb	r0, r0
 630 036a FFF7FEFF 		bl	RS232_PutChar
 631              	.LVL110:
 153:Print.c       ****             RS232_PutChar(volumen[x]+48);
 632              		.loc 1 153 0
 633 036e 0122     		movs	r2, #1
 634              	.LVL111:
 635              	.L38:
 142:Print.c       ****         if((volumen[x]==0)&&(digito==0)){
 636              		.loc 1 142 0 discriminator 2
 637 0370 013C     		subs	r4, r4, #1
 638              	.LVL112:
 639 0372 E4B2     		uxtb	r4, r4
 640              	.LVL113:
 641              	.L36:
 142:Print.c       ****         if((volumen[x]==0)&&(digito==0)){
 642              		.loc 1 142 0 is_stmt 0 discriminator 1
 643 0374 002C     		cmp	r4, #0
 644 0376 E5D1     		bne	.L40
 155:Print.c       ****         }	
 156:Print.c       **** 	}
 157:Print.c       **** 	RS232_PutChar(volumen[0]+48);
 645              		.loc 1 157 0 is_stmt 1
 646 0378 2878     		ldrb	r0, [r5]	@ zero_extendqisi2
 647 037a 3030     		adds	r0, r0, #48
 648 037c C0B2     		uxtb	r0, r0
 649 037e FFF7FEFF 		bl	RS232_PutChar
 650              	.LVL114:
 158:Print.c       ****     RS232_PutChar(10);										//DINERO							
 651              		.loc 1 158 0
 652 0382 0A20     		movs	r0, #10
 653 0384 FFF7FEFF 		bl	RS232_PutChar
 654              	.LVL115:
 159:Print.c       **** 	RS232_PutString("DINERO:    $ ");
 655              		.loc 1 159 0
 656 0388 2548     		ldr	r0, .L56+8
 657 038a FFF7FEFF 		bl	RS232_PutString
 658              	.LVL116:
 160:Print.c       ****     digito=0;	
 659              		.loc 1 160 0
 660 038e 0023     		movs	r3, #0
 161:Print.c       **** 	for(x=6;x>=1;x--){
 661              		.loc 1 161 0
 662 0390 0624     		movs	r4, #6
 663 0392 09E0     		b	.L41
 664              	.LVL117:
 665              	.L44:
ARM GAS  C:\Users\leo40\AppData\Local\Temp\ccUVeDuz.s 			page 16


 162:Print.c       ****         if((dinero[x]==0)&&(digito==0)){
 666              		.loc 1 162 0
 667 0394 305D     		ldrb	r0, [r6, r4]	@ zero_extendqisi2
 668 0396 00B9     		cbnz	r0, .L42
 669              		.loc 1 162 0 is_stmt 0 discriminator 1
 670 0398 23B1     		cbz	r3, .L43
 671              	.L42:
 672              	.LVL118:
 163:Print.c       ****             
 164:Print.c       ****         }
 165:Print.c       ****         else{
 166:Print.c       ****             digito=1;
 167:Print.c       ****             RS232_PutChar(dinero[x]+48);
 673              		.loc 1 167 0 is_stmt 1
 674 039a 3030     		adds	r0, r0, #48
 675 039c C0B2     		uxtb	r0, r0
 676 039e FFF7FEFF 		bl	RS232_PutChar
 677              	.LVL119:
 166:Print.c       ****             RS232_PutChar(dinero[x]+48);
 678              		.loc 1 166 0
 679 03a2 0123     		movs	r3, #1
 680              	.LVL120:
 681              	.L43:
 161:Print.c       ****         if((dinero[x]==0)&&(digito==0)){
 682              		.loc 1 161 0 discriminator 2
 683 03a4 013C     		subs	r4, r4, #1
 684              	.LVL121:
 685 03a6 E4B2     		uxtb	r4, r4
 686              	.LVL122:
 687              	.L41:
 161:Print.c       ****         if((dinero[x]==0)&&(digito==0)){
 688              		.loc 1 161 0 is_stmt 0 discriminator 1
 689 03a8 002C     		cmp	r4, #0
 690 03aa F3D1     		bne	.L44
 168:Print.c       ****         }	
 169:Print.c       **** 	}
 170:Print.c       **** 	if(version == 6){
 691              		.loc 1 170 0 is_stmt 1
 692 03ac 1D4B     		ldr	r3, .L56+12
 693              	.LVL123:
 694 03ae 1B78     		ldrb	r3, [r3]	@ zero_extendqisi2
 695 03b0 DBB2     		uxtb	r3, r3
 696 03b2 062B     		cmp	r3, #6
 697 03b4 04D1     		bne	.L45
 171:Print.c       **** 		RS232_PutChar(dinero[0]+48);
 698              		.loc 1 171 0
 699 03b6 3078     		ldrb	r0, [r6]	@ zero_extendqisi2
 700 03b8 3030     		adds	r0, r0, #48
 701 03ba C0B2     		uxtb	r0, r0
 702 03bc FFF7FEFF 		bl	RS232_PutChar
 703              	.LVL124:
 704              	.L45:
 172:Print.c       **** 	} 
 173:Print.c       ****     RS232_PutChar(10);
 705              		.loc 1 173 0
 706 03c0 0A20     		movs	r0, #10
 707 03c2 FFF7FEFF 		bl	RS232_PutChar
ARM GAS  C:\Users\leo40\AppData\Local\Temp\ccUVeDuz.s 			page 17


 708              	.LVL125:
 174:Print.c       ****     RS232_PutChar(10);
 709              		.loc 1 174 0
 710 03c6 0A20     		movs	r0, #10
 711 03c8 FFF7FEFF 		bl	RS232_PutChar
 712              	.LVL126:
 175:Print.c       **** 	RS232_PutChar(10);                																											
 713              		.loc 1 175 0
 714 03cc 0A20     		movs	r0, #10
 715 03ce FFF7FEFF 		bl	RS232_PutChar
 716              	.LVL127:
 176:Print.c       **** 	RS232_PutString("      GRACIAS POR SU COMPRA");                     //LEMA1
 717              		.loc 1 176 0
 718 03d2 1548     		ldr	r0, .L56+16
 719 03d4 FFF7FEFF 		bl	RS232_PutString
 720              	.LVL128:
 177:Print.c       **** 	RS232_PutChar(10); 																											
 721              		.loc 1 177 0
 722 03d8 0A20     		movs	r0, #10
 723 03da FFF7FEFF 		bl	RS232_PutChar
 724              	.LVL129:
 178:Print.c       **** 	RS232_PutString("          VUELVA PRONTO");                        //LEMA2
 725              		.loc 1 178 0
 726 03de 1348     		ldr	r0, .L56+20
 727 03e0 FFF7FEFF 		bl	RS232_PutString
 728              	.LVL130:
 179:Print.c       ****     RS232_PutChar(10); 
 729              		.loc 1 179 0
 730 03e4 0A20     		movs	r0, #10
 731 03e6 FFF7FEFF 		bl	RS232_PutChar
 732              	.LVL131:
 180:Print.c       ****     RS232_PutChar(10); 
 733              		.loc 1 180 0
 734 03ea 0A20     		movs	r0, #10
 735 03ec FFF7FEFF 		bl	RS232_PutChar
 736              	.LVL132:
 181:Print.c       ****     RS232_PutChar(10);
 737              		.loc 1 181 0
 738 03f0 0A20     		movs	r0, #10
 739 03f2 FFF7FEFF 		bl	RS232_PutChar
 740              	.LVL133:
 182:Print.c       ****     RS232_PutChar(10);
 741              		.loc 1 182 0
 742 03f6 0A20     		movs	r0, #10
 743 03f8 FFF7FEFF 		bl	RS232_PutChar
 744              	.LVL134:
 183:Print.c       **** 	RS232_PutChar(10); 
 745              		.loc 1 183 0
 746 03fc 0A20     		movs	r0, #10
 747 03fe FFF7FEFF 		bl	RS232_PutChar
 748              	.LVL135:
 184:Print.c       ****     RS232_PutChar(0x1D);
 749              		.loc 1 184 0
 750 0402 1D20     		movs	r0, #29
 751 0404 FFF7FEFF 		bl	RS232_PutChar
 752              	.LVL136:
 185:Print.c       ****     RS232_PutChar(0x56);
ARM GAS  C:\Users\leo40\AppData\Local\Temp\ccUVeDuz.s 			page 18


 753              		.loc 1 185 0
 754 0408 5620     		movs	r0, #86
 755 040a FFF7FEFF 		bl	RS232_PutChar
 756              	.LVL137:
 186:Print.c       **** 	RS232_PutChar(0x31);    
 757              		.loc 1 186 0
 758 040e 3120     		movs	r0, #49
 759 0410 FFF7FEFF 		bl	RS232_PutChar
 760              	.LVL138:
 761 0414 BDE8F883 		pop	{r3, r4, r5, r6, r7, r8, r9, pc}
 762              	.LVL139:
 763              	.L57:
 764              		.align	2
 765              	.L56:
 766 0418 00000000 		.word	ppux10
 767 041c 64000000 		.word	.LC8
 768 0420 74000000 		.word	.LC9
 769 0424 00000000 		.word	version
 770 0428 84000000 		.word	.LC10
 771 042c A0000000 		.word	.LC11
 772              		.cfi_endproc
 773              	.LFE63:
 774              		.size	imprimir, .-imprimir
 775              		.comm	print2,2,4
 776              		.comm	print1,2,4
 777              		.comm	rventa2,99,4
 778              		.comm	rventa1,99,4
 779              		.comm	hora,2,4
 780              		.comm	fecha,3,4
 781              		.comm	km,2,4
 782              		.comm	id_logo,2,4
 783              		.comm	lema2,32,4
 784              		.comm	lema1,32,4
 785              		.comm	direccion,33,4
 786              		.comm	telefono,20,4
 787              		.comm	nit,15,4
 788              		.comm	nombre,33,4
 789              		.comm	lado2,92,4
 790              		.comm	lado1,92,4
 791              		.comm	version,1,1
 792              		.comm	nombre_pro3,17,4
 793              		.comm	nombre_pro2,17,4
 794              		.comm	nombre_pro1,17,4
 795              		.comm	ppux10,1,1
 796              		.section	.rodata.str1.4,"aMS",%progbits,1
 797              		.align	2
 798              	.LC0:
 799 0000 20202020 		.ascii	"      ESTACION DE SERVICIO\012\000"
 799      20204553 
 799      54414349 
 799      4F4E2044 
 799      45205345 
 800              	.LC1:
 801 001c 4E495420 		.ascii	"NIT \000"
 801      00
 802 0021 000000   		.space	3
 803              	.LC2:
ARM GAS  C:\Users\leo40\AppData\Local\Temp\ccUVeDuz.s 			page 19


 804 0024 54454C3A 		.ascii	"TEL:\000"
 804      00
 805 0029 000000   		.space	3
 806              	.LC3:
 807 002c 46454348 		.ascii	"FECHA: \000"
 807      413A2000 
 808              	.LC4:
 809 0034 484F5241 		.ascii	"HORA:  \000"
 809      3A202000 
 810              	.LC5:
 811 003c 504F5349 		.ascii	"POSICION:  \000"
 811      43494F4E 
 811      3A202000 
 812              	.LC6:
 813 0048 50524F44 		.ascii	"PRODUCTO:  \000"
 813      5543544F 
 813      3A202000 
 814              	.LC7:
 815 0054 5050553A 		.ascii	"PPU:       $/G \000"
 815      20202020 
 815      20202024 
 815      2F472000 
 816              	.LC8:
 817 0064 564F4C55 		.ascii	"VOLUMEN:   G \000"
 817      4D454E3A 
 817      20202047 
 817      2000
 818 0072 0000     		.space	2
 819              	.LC9:
 820 0074 44494E45 		.ascii	"DINERO:    $ \000"
 820      524F3A20 
 820      20202024 
 820      2000
 821 0082 0000     		.space	2
 822              	.LC10:
 823 0084 20202020 		.ascii	"      GRACIAS POR SU COMPRA\000"
 823      20204752 
 823      41434941 
 823      5320504F 
 823      52205355 
 824              	.LC11:
 825 00a0 20202020 		.ascii	"          VUELVA PRONTO\000"
 825      20202020 
 825      20205655 
 825      454C5641 
 825      2050524F 
 826              		.text
 827              	.Letext0:
 828              		.file 2 "c:\\program files (x86)\\cypress\\psoc creator\\4.2\\psoc creator\\import\\gnu\\arm\\5.4.
 829              		.file 3 "c:\\program files (x86)\\cypress\\psoc creator\\4.2\\psoc creator\\import\\gnu\\arm\\5.4.
 830              		.file 4 "Generated_Source\\PSoC5/cytypes.h"
 831              		.file 5 "VariablesG.h"
 832              		.file 6 "Generated_Source\\PSoC5/core_cm3.h"
 833              		.file 7 "Generated_Source\\PSoC5/RS232.h"
 834              		.file 8 "i2c.h"